001000: 000000              		HALT
001002: 000010              		.#10
001004: 000020              	L18:	.#20
001006: 000030              	L69:	.#30
001010: 000040              		.#40
001012: 000050              		.#50
001014: 000060              		.#60
001016: 000070              	L42:	.#70
001020: 000100              		JMP	R0

001022: 000110              		JMP	(R0)

001024: 000120              		JMP	(R0)+

001026: 000130              	L19:	JMP	@(R0)+

001030: 000140              	L70:	JMP	-(R0)

001032: 000150              		JMP	@-(R0)

001034: 000160 000170       		JMP	170(R0)

001040: 000200              	L43:	RTS	R0

001042: 000210              		.#210
001044: 000220              		.#220
001046: 000230              		.#230
001050: 000240              	L20:	NOP
001052: 000250              	L71:	CLN
001054: 000260              		.#260
001056: 000270              		SEN
001060: 000300              		SWAB	R0
001062: 000310              	L44:	SWAB	(R0)
001064: 000320              	L100:	SWAB	(R0)+
001066: 000330              		SWAB	@(R0)+
001070: 000340              		SWAB	-(R0)
001072: 000350              	L21:	SWAB	@-(R0)
001074: 000360 000370       	L72:	SWAB	370(R0)
001100: 000400              		BR	L1

001102: 000410              	L1:	BR	L2

001104: 000420              	L45:	BR	L3

001106: 000430              	L101:	BR	L4

001110: 000440              		BR	L5

001112: 000450              		BR	L6

001114: 000460              	L22:	BR	L7

001116: 000470              	L73:	BR	L8

001120: 000500              		BR	L9

001122: 000510              		BR	L10

001124: 000520              	L2:	BR	L11

001126: 000530              	L46:	BR	L12

001130: 000540              	L102:	BR	L13

001132: 000550              		BR	L14

001134: 000560              		BR	L15

001136: 000570              	L23:	BR	L16

001140: 000600              	L74:	BR	L17

001142: 000610              		BR	564

001144: 000620              		BR	606

001146: 000630              	L3:	BR	630

001150: 000640              	L47:	BR	652

001152: 000650              	L103:	BR	674

001154: 000660              		BR	716

001156: 000670              		BR	740

001160: 000700              	L24:	BR	762

001162: 000710              	L75:	BR	L18

001164: 000720              	L132:	BR	L19

001166: 000730              		BR	L20

001170: 000740              	L4:	BR	L21

001172: 000750              	L48:	BR	L22

001174: 000760              	L104:	BR	L23

001176: 000770              		BR	L24

001200: 001000              		BNE	L25
001202: 001010              	L25:	BNE	L26
001204: 001020              	L76:	BNE	L27
001206: 001030              	L133:	BNE	L28
001210: 001040              		BNE	L29
001212: 001050              	L5:	BNE	L30
001214: 001060              	L49:	BNE	L31
001216: 001070              	L105:	BNE	L32
001220: 001100              		BNE	L33
001222: 001110              		BNE	L34
001224: 001120              	L26:	BNE	L35
001226: 001130              	L77:	BNE	L36
001230: 001140              	L134:	BNE	L37
001232: 001150              		BNE	L38
001234: 001160              	L6:	BNE	L39
001236: 001170              	L50:	BNE	L40
001240: 001200              	L106:	BNE	L41
001242: 001210              		BNE	664
001244: 001220              		BNE	706
001246: 001230              	L27:	BNE	730
001250: 001240              	L78:	BNE	752
001252: 001250              	L135:	BNE	774
001254: 001260              		BNE	L42
001256: 001270              	L7:	BNE	L43
001260: 001300              	L51:	BNE	L44
001262: 001310              	L107:	BNE	L45
001264: 001320              	L164:	BNE	L46
001266: 001330              		BNE	L47
001270: 001340              	L28:	BNE	L48
001272: 001350              	L79:	BNE	L49
001274: 001360              	L136:	BNE	L50
001276: 001370              		BNE	L51
001300: 001400              	L8:	BEQ	L52
001302: 001410              	L52:	BEQ	L53
001304: 001420              	L108:	BEQ	L54
001306: 001430              	L165:	BEQ	L55
001310: 001440              		BEQ	L56
001312: 001450              	L29:	BEQ	L57
001314: 001460              	L80:	BEQ	L58
001316: 001470              	L137:	BEQ	L59
001320: 001500              		BEQ	L60
001322: 001510              	L9:	BEQ	L61
001324: 001520              	L53:	BEQ	L62
001326: 001530              	L109:	BEQ	L63
001330: 001540              	L166:	BEQ	L64
001332: 001550              		BEQ	L65
001334: 001560              	L30:	BEQ	L66
001336: 001570              	L81:	BEQ	L67
001340: 001600              	L138:	BEQ	L68
001342: 001610              		BEQ	764
001344: 001620              	L10:	BEQ	L69
001346: 001630              	L54:	BEQ	L70
001350: 001640              	L110:	BEQ	L71
001352: 001650              	L167:	BEQ	L72
001354: 001660              		BEQ	L73
001356: 001670              	L31:	BEQ	L74
001360: 001700              	L82:	BEQ	L75
001362: 001710              	L139:	BEQ	L76
001364: 001720              	L195:	BEQ	L77
001366: 001730              	L11:	BEQ	L78
001370: 001740              	L55:	BEQ	L79
001372: 001750              	L111:	BEQ	L80
001374: 001760              	L168:	BEQ	L81
001376: 001770              		BEQ	L82
001400: 002000              	L32:	BGE	L83
001402: 002010              	L83:	BGE	L84
001404: 002020              	L140:	BGE	L85
001406: 002030              	L196:	BGE	L86
001410: 002040              	L12:	BGE	L87
001412: 002050              	L56:	BGE	L88
001414: 002060              	L112:	BGE	L89
001416: 002070              	L169:	BGE	L90
001420: 002100              		BGE	L91
001422: 002110              	L33:	BGE	L92
001424: 002120              	L84:	BGE	L93
001426: 002130              	L141:	BGE	L94
001430: 002140              	L197:	BGE	L95
001432: 002150              	L13:	BGE	L96
001434: 002160              	L57:	BGE	L97
001436: 002170              	L113:	BGE	L98
001440: 002200              	L170:	BGE	L99
001442: 002210              		BGE	L100
001444: 002220              	L34:	BGE	L101
001446: 002230              	L85:	BGE	L102
001450: 002240              	L142:	BGE	L103
001452: 002250              	L198:	BGE	L104
001454: 002260              	L14:	BGE	L105
001456: 002270              	L58:	BGE	L106
001460: 002300              	L114:	BGE	L107
001462: 002310              	L171:	BGE	L108
001464: 002320              		BGE	L109
001466: 002330              	L35:	BGE	L110
001470: 002340              	L86:	BGE	L111
001472: 002350              	L143:	BGE	L112
001474: 002360              	L199:	BGE	L113
001476: 002370              	L15:	BGE	L114
001500: 002400              	L59:	BLT	L115
001502: 002410              	L115:	BLT	L116
001504: 002420              	L172:	BLT	L117
001506: 002430              	L544:	BLT	L118
001510: 002440              	L36:	BLT	L119
001512: 002450              	L87:	BLT	L120
001514: 002460              	L144:	BLT	L121
001516: 002470              	L200:	BLT	L122
001520: 002500              	L16:	BLT	L123
001522: 002510              	L60:	BLT	L124
001524: 002520              	L116:	BLT	L125
001526: 002530              	L173:	BLT	L126
001530: 002540              		BLT	L127
001532: 002550              	L37:	BLT	L128
001534: 002560              	L88:	BLT	L129+2
001536: 002570              	L145:	BLT	L130
001540: 002600              	L201:	BLT	L131
001542: 002610              	L17:	BLT	L132
001544: 002620              	L61:	BLT	L133
001546: 002630              	L117:	BLT	L134
001550: 002640              	L174:	BLT	L135
001552: 002650              		BLT	L136
001554: 002660              	L38:	BLT	L137
001556: 002670              	L89:	BLT	L138
001560: 002700              	L146:	BLT	L139
001562: 002710              	L202:	BLT	L140
001564: 002720              		BLT	L141
001566: 002730              	L62:	BLT	L142
001570: 002740              	L118:	BLT	L143
001572: 002750              	L175:	BLT	L144
001574: 002760              		BLT	L145
001576: 002770              	L39:	BLT	L146
001600: 003000              	L90:	BGT	L147
001602: 003010              	L147:	BGT	L148
001604: 003020              	L203:	BGT	L149
001606: 003030              		BGT	L150
001610: 003040              	L63:	BGT	L151
001612: 003050              	L119:	BGT	L152
001614: 003060              	L176:	BGT	L153
001616: 003070              		BGT	L154
001620: 003100              	L40:	BGT	L155
001622: 003110              	L91:	BGT	L156
001624: 003120              	L148:	BGT	L157
001626: 003130              	L204:	BGT	L158
001630: 003140              		BGT	L159
001632: 003150              	L64:	BGT	L160
001634: 003160              	L120:	BGT	L161+2
001636: 003170              	L177:	BGT	L162
001640: 003200              		BGT	L163
001642: 003210              	L41:	BGT	L164
001644: 003220              	L92:	BGT	L165
001646: 003230              	L149:	BGT	L166
001650: 003240              	L205:	BGT	L167
001652: 003250              		BGT	L168
001654: 003260              	L65:	BGT	L169
001656: 003270              	L121:	BGT	L170
001660: 003300              	L178:	BGT	L171
001662: 003310              		BGT	L172
001664: 003320              		BGT	L173
001666: 003330              	L93:	BGT	L174
001670: 003340              	L150:	BGT	L175
001672: 003350              	L206:	BGT	L176
001674: 003360              		BGT	L177
001676: 003370              	L66:	BGT	L178
001700: 003400              	L122:	BLE	L179
001702: 003410              	L179:	BLE	L180
001704: 003420              		BLE	L181
001706: 003430              		BLE	L182
001710: 003440              	L94:	BLE	L183
001712: 003450              	L151:	BLE	L184
001714: 003460              	L207:	BLE	L128+2
001716: 003470              		BLE	L185
001720: 003500              	L67:	BLE	L186
001722: 003510              	L123:	BLE	L187
001724: 003520              	L180:	BLE	L188
001726: 003530              		BLE	L189
001730: 003540              		BLE	L190
001732: 003550              	L95:	BLE	L191
001734: 003560              	L152:	BLE	L192+2
001736: 003570              	L208:	BLE	L193
001740: 003600              		BLE	L194
001742: 003610              	L68:	BLE	L195
001744: 003620              	L124:	BLE	L196
001746: 003630              	L181:	BLE	L197
001750: 003640              		BLE	L198
001752: 003650              		BLE	L199
001754: 003660              	L96:	BLE	L200
001756: 003670              	L153:	BLE	L201
001760: 003700              	L209:	BLE	L202
001762: 003710              		BLE	L203
001764: 003720              		BLE	L204
001766: 003730              	L125:	BLE	L205
001770: 003740              	L182:	BLE	L206
001772: 003750              		BLE	L207
001774: 003760              		BLE	L208
001776: 003770              	L97:	BLE	L209
002000: 004000              	L154:	JSR	R0,R0
002002: 004010              		JSR	R0,(R0)
002004: 004020              		JSR	R0,(R0)+
002006: 004030              		JSR	R0,@(R0)+
002010: 004040              	L126:	JSR	R0,-(R0)
002012: 004050              	L183:	JSR	R0,@-(R0)
002014: 004060 004070       		JSR	R0,4070(R0)
002020: 004100              	L98:	JSR	R1,R0
002022: 004110              	L155:	JSR	R1,(R0)
002024: 004120              		JSR	R1,(R0)+
002026: 004130              		JSR	R1,@(R0)+
002030: 004140              		JSR	R1,-(R0)
002032: 004150              	L127:	JSR	R1,@-(R0)
002034: 004160 004170       	L184:	JSR	R1,4170(R0)
002040: 004200              		JSR	R2,R0
002042: 004210              	L99:	JSR	R2,(R0)
002044: 004220              	L156:	JSR	R2,(R0)+
002046: 004230              		JSR	R2,@(R0)+
002050: 004240              		JSR	R2,-(R0)
002052: 004250              		JSR	R2,@-(R0)
002054: 004260 004270       	L128:	JSR	R2,4270(R0)
002060: 004300              		JSR	R3,R0
002062: 004310              		JSR	R3,(R0)
002064: 004320              		JSR	R3,(R0)+
002066: 004330              	L157:	JSR	R3,@(R0)+
002070: 004340              		JSR	R3,-(R0)
002072: 004350              		JSR	R3,@-(R0)
002074: 004360 004370       	L129:	JSR	R3,4370(R0)
002100: 004400              	L185:	JSR	R4,R0
002102: 004410              		JSR	R4,(R0)
002104: 004420              		JSR	R4,(R0)+
002106: 004430              		JSR	R4,@(R0)+
002110: 004440              	L158:	JSR	R4,-(R0)
002112: 004450              		JSR	R4,@-(R0)
002114: 004460 004470       		JSR	R4,4470(R0)
002120: 004500              	L130:	JSR	R5,R0
002122: 004510              	L186:	JSR	R5,(R0)
002124: 004520              		JSR	R5,(R0)+
002126: 004530              		JSR	R5,@(R0)+
002130: 004540              		JSR	R5,-(R0)
002132: 004550              	L159:	JSR	R5,@-(R0)
002134: 004560 004570       		JSR	R5,4570(R0)
002140: 004600              		JSR	SP,R0
002142: 004610              	L131:	JSR	SP,(R0)
002144: 004620              	L187:	JSR	SP,(R0)+
002146: 004630              		JSR	SP,@(R0)+
002150: 004640              		JSR	SP,-(R0)
002152: 004650              		JSR	SP,@-(R0)
002154: 004660 004670       	L160:	JSR	SP,4670(R0)
002160: 004700              		CALL	R0
002162: 004710              		CALL	(R0)
002164: 004720              		CALL	(R0)+
002166: 004730              	L188:	CALL	@(R0)+
002170: 004740              		CALL	-(R0)
002172: 004750              		CALL	@-(R0)
002174: 004760 004770       	L161:	CALL	4770(R0)
002200: 005000              		CLR	R0
002202: 005010              		CLR	(R0)
002204: 005020              		CLR	(R0)+
002206: 005030              		CLR	@(R0)+
002210: 005040              	L189:	CLR	-(R0)
002212: 005050              		CLR	@-(R0)
002214: 005060 005070       		CLR	5070(R0)
002220: 005100              	L162:	COM	R0
002222: 005110              		COM	(R0)
002224: 005120              		COM	(R0)+
002226: 005130              		COM	@(R0)+
002230: 005140              		COM	-(R0)
002232: 005150              	L190:	COM	@-(R0)
002234: 005160 005170       		COM	5170(R0)
002240: 005200              		INC	R0
002242: 005210              	L163:	INC	(R0)
002244: 005220              		INC	(R0)+
002246: 005230              		INC	@(R0)+
002250: 005240              		INC	-(R0)
002252: 005250              		INC	@-(R0)
002254: 005260 005270       	L191:	INC	5270(R0)
002260: 005300              		DEC	R0
002262: 005310              		DEC	(R0)
002264: 005320              		DEC	(R0)+
002266: 005330              		DEC	@(R0)+
002270: 005340              		DEC	-(R0)
002272: 005350              		DEC	@-(R0)
002274: 005360 005370       	L192:	DEC	5370(R0)
002300: 005400              		NEG	R0
002302: 005410              		NEG	(R0)
002304: 005420              		NEG	(R0)+
002306: 005430              		NEG	@(R0)+
002310: 005440              		NEG	-(R0)
002312: 005450              		NEG	@-(R0)
002314: 005460 005470       		NEG	5470(R0)
002320: 005500              	L193:	ADC	R0
002322: 005510              		ADC	(R0)
002324: 005520              		ADC	(R0)+
002326: 005530              		ADC	@(R0)+
002330: 005540              		ADC	-(R0)
002332: 005550              		ADC	@-(R0)
002334: 005560 005570       		ADC	5570(R0)
002340: 005600              		SBC	R0
002342: 005610              	L194:	SBC	(R0)
002344: 005620              		SBC	(R0)+
002346: 005630              		SBC	@(R0)+
002350: 005640              		SBC	-(R0)
002352: 005650              		SBC	@-(R0)
002354: 005660 005670       		SBC	5670(R0)
002360: 005700              		TST	R0
002362: 005710              		TST	(R0)
002364: 005720              		TST	(R0)+
002366: 005730              		TST	@(R0)+
002370: 005740              		TST	-(R0)
002372: 005750              		TST	@-(R0)
002374: 005760 005770       		TST	5770(R0)
002400: 006000              		ROR	R0
002402: 006010              		ROR	(R0)
002404: 006020              		ROR	(R0)+
002406: 006030              		ROR	@(R0)+
002410: 006040              		ROR	-(R0)
002412: 006050              		ROR	@-(R0)
002414: 006060 006070       		ROR	6070(R0)
002420: 006100              		ROL	R0
002422: 006110              		ROL	(R0)
002424: 006120              		ROL	(R0)+
002426: 006130              		ROL	@(R0)+
002430: 006140              		ROL	-(R0)
002432: 006150              		ROL	@-(R0)
002434: 006160 006170       		ROL	6170(R0)
002440: 006200              		ASR	R0
002442: 006210              		ASR	(R0)
002444: 006220              		ASR	(R0)+
002446: 006230              		ASR	@(R0)+
002450: 006240              		ASR	-(R0)
002452: 006250              		ASR	@-(R0)
002454: 006260 006270       		ASR	6270(R0)
002460: 006300              		ASL	R0
002462: 006310              		ASL	(R0)
002464: 006320              		ASL	(R0)+
002466: 006330              		ASL	@(R0)+
002470: 006340              		ASL	-(R0)
002472: 006350              		ASL	@-(R0)
002474: 006360 006370       		ASL	6370(R0)
002500: 006400              		MARK	0
002502: 006410              		MARK	10
002504: 006420              		MARK	20
002506: 006430              		MARK	30
002510: 006440              		MARK	40
002512: 006450              		MARK	50
002514: 006460              		MARK	60
002516: 006470              		MARK	70
002520: 006500              		MFPI	R0
002522: 006510              		MFPI	(R0)
002524: 006520              		MFPI	(R0)+
002526: 006530              		MFPI	@(R0)+
002530: 006540              		MFPI	-(R0)
002532: 006550              		MFPI	@-(R0)
002534: 006560 006570       		MFPI	6570(R0)
002540: 006600              		MTPI	R0
002542: 006610              		MTPI	(R0)
002544: 006620              		MTPI	(R0)+
002546: 006630              		MTPI	@(R0)+
002550: 006640              		MTPI	-(R0)
002552: 006650              		MTPI	@-(R0)
002554: 006660 006670       		MTPI	6670(R0)
002560: 006700              		SXT	R0
002562: 006710              		SXT	(R0)
002564: 006720              		SXT	(R0)+
002566: 006730              		SXT	@(R0)+
002570: 006740              		SXT	-(R0)
002572: 006750              		SXT	@-(R0)
002574: 006760 006770       		SXT	6770(R0)
002600: 007000              		.#7000
002602: 007010              		.#7010
002604: 007020              		.#7020
002606: 007030              		.#7030
002610: 007040              		.#7040
002612: 007050              		.#7050
002614: 007060              		.#7060
002616: 007070              		.#7070
002620: 007100              		.#7100
002622: 007110              		.#7110
002624: 007120              		.#7120
002626: 007130              		.#7130
002630: 007140              		.#7140
002632: 007150              		.#7150
002634: 007160              		.#7160
002636: 007170              		.#7170
002640: 007200              		.#7200
002642: 007210              		.#7210
002644: 007220              		.#7220
002646: 007230              		.#7230
002650: 007240              		.#7240
002652: 007250              		.#7250
002654: 007260              		.#7260
002656: 007270              		.#7270
002660: 007300              		.#7300
002662: 007310              		.#7310
002664: 007320              		.#7320
002666: 007330              		.#7330
002670: 007340              		.#7340
002672: 007350              		.#7350
002674: 007360              		.#7360
002676: 007370              		.#7370
002700: 007400              		.#7400
002702: 007410              		.#7410
002704: 007420              		.#7420
002706: 007430              	L545:	.#7430
002710: 007440              		.#7440
002712: 007450              		.#7450
002714: 007460              		.#7460
002716: 007470              		.#7470
002720: 007500              		.#7500
002722: 007510              		.#7510
002724: 007520              		.#7520
002726: 007530              		.#7530
002730: 007540              		.#7540
002732: 007550              	L546:	.#7550
002734: 007560              		.#7560
002736: 007570              		.#7570
002740: 007600              		.#7600
002742: 007610              		.#7610
002744: 007620              		.#7620
002746: 007630              		.#7630
002750: 007640              		.#7640
002752: 007650              		.#7650
002754: 007660              		.#7660
002756: 007670              	L547:	.#7670
002760: 007700              		.#7700
002762: 007710              		.#7710
002764: 007720              		.#7720
002766: 007730              		.#7730
002770: 007740              		.#7740
002772: 007750              		.#7750
002774: 007760              		.#7760
002776: 007770              		.#7770
003000: 010000              		MOV	R0,R0
003002: 010010              	L548:	MOV	R0,(R0)
003004: 010020              		MOV	R0,(R0)+
003006: 010030              		MOV	R0,@(R0)+
003010: 010040              		MOV	R0,-(R0)
003012: 010050              		MOV	R0,@-(R0)
003014: 010060 010070       		MOV	R0,10070(R0)
003020: 010100              		MOV	R1,R0
003022: 010110              		MOV	R1,(R0)
003024: 010120              		MOV	R1,(R0)+
003026: 010130              		MOV	R1,@(R0)+
003030: 010140              		MOV	R1,-(R0)
003032: 010150              		MOV	R1,@-(R0)
003034: 010160 010170       		MOV	R1,10170(R0)
003040: 010200              		MOV	R2,R0
003042: 010210              		MOV	R2,(R0)
003044: 010220              		MOV	R2,(R0)+
003046: 010230              		MOV	R2,@(R0)+
003050: 010240              		MOV	R2,-(R0)
003052: 010250              		MOV	R2,@-(R0)
003054: 010260 010270       		MOV	R2,10270(R0)
003060: 010300              		MOV	R3,R0
003062: 010310              		MOV	R3,(R0)
003064: 010320              		MOV	R3,(R0)+
003066: 010330              		MOV	R3,@(R0)+
003070: 010340              		MOV	R3,-(R0)
003072: 010350              		MOV	R3,@-(R0)
003074: 010360 010370       		MOV	R3,10370(R0)
003100: 010400              		MOV	R4,R0
003102: 010410              		MOV	R4,(R0)
003104: 010420              		MOV	R4,(R0)+
003106: 010430              		MOV	R4,@(R0)+
003110: 010440              		MOV	R4,-(R0)
003112: 010450              		MOV	R4,@-(R0)
003114: 010460 010470       		MOV	R4,10470(R0)
003120: 010500              		MOV	R5,R0
003122: 010510              		MOV	R5,(R0)
003124: 010520              		MOV	R5,(R0)+
003126: 010530              		MOV	R5,@(R0)+
003130: 010540              		MOV	R5,-(R0)
003132: 010550              		MOV	R5,@-(R0)
003134: 010560 010570       		MOV	R5,10570(R0)
003140: 010600              		MOV	SP,R0
003142: 010610              		MOV	SP,(R0)
003144: 010620              		MOV	SP,(R0)+
003146: 010630              		MOV	SP,@(R0)+
003150: 010640              		MOV	SP,-(R0)
003152: 010650              		MOV	SP,@-(R0)
003154: 010660 010670       		MOV	SP,10670(R0)
003160: 010700              		MOV	PC,R0
003162: 010710              		MOV	PC,(R0)
003164: 010720              		MOV	PC,(R0)+
003166: 010730              		MOV	PC,@(R0)+
003170: 010740              		MOV	PC,-(R0)
003172: 010750              		MOV	PC,@-(R0)
003174: 010760 010770       		MOV	PC,10770(R0)
003200: 011000              		MOV	(R0),R0
003202: 011010              		MOV	(R0),(R0)
003204: 011020              		MOV	(R0),(R0)+
003206: 011030              		MOV	(R0),@(R0)+
003210: 011040              		MOV	(R0),-(R0)
003212: 011050              		MOV	(R0),@-(R0)
003214: 011060 011070       		MOV	(R0),11070(R0)
003220: 011100              		MOV	(R1),R0
003222: 011110              		MOV	(R1),(R0)
003224: 011120              		MOV	(R1),(R0)+
003226: 011130              		MOV	(R1),@(R0)+
003230: 011140              		MOV	(R1),-(R0)
003232: 011150              		MOV	(R1),@-(R0)
003234: 011160 011170       		MOV	(R1),11170(R0)
003240: 011200              		MOV	(R2),R0
003242: 011210              		MOV	(R2),(R0)
003244: 011220              		MOV	(R2),(R0)+
003246: 011230              		MOV	(R2),@(R0)+
003250: 011240              		MOV	(R2),-(R0)
003252: 011250              		MOV	(R2),@-(R0)
003254: 011260 011270       		MOV	(R2),11270(R0)
003260: 011300              		MOV	(R3),R0
003262: 011310              		MOV	(R3),(R0)
003264: 011320              		MOV	(R3),(R0)+
003266: 011330              		MOV	(R3),@(R0)+
003270: 011340              		MOV	(R3),-(R0)
003272: 011350              		MOV	(R3),@-(R0)
003274: 011360 011370       		MOV	(R3),11370(R0)
003300: 011400              		MOV	(R4),R0
003302: 011410              		MOV	(R4),(R0)
003304: 011420              		MOV	(R4),(R0)+
003306: 011430              		MOV	(R4),@(R0)+
003310: 011440              		MOV	(R4),-(R0)
003312: 011450              		MOV	(R4),@-(R0)
003314: 011460 011470       		MOV	(R4),11470(R0)
003320: 011500              		MOV	(R5),R0
003322: 011510              		MOV	(R5),(R0)
003324: 011520              		MOV	(R5),(R0)+
003326: 011530              		MOV	(R5),@(R0)+
003330: 011540              		MOV	(R5),-(R0)
003332: 011550              		MOV	(R5),@-(R0)
003334: 011560 011570       		MOV	(R5),11570(R0)
003340: 011600              		MOV	(SP),R0
003342: 011610              		MOV	(SP),(R0)
003344: 011620              		MOV	(SP),(R0)+
003346: 011630              		MOV	(SP),@(R0)+
003350: 011640              		MOV	(SP),-(R0)
003352: 011650              		MOV	(SP),@-(R0)
003354: 011660 011670       		MOV	(SP),11670(R0)
003360: 011700              		MOV	(PC),R0
003362: 011710              		MOV	(PC),(R0)
003364: 011720              		MOV	(PC),(R0)+
003366: 011730              		MOV	(PC),@(R0)+
003370: 011740              		MOV	(PC),-(R0)
003372: 011750              		MOV	(PC),@-(R0)
003374: 011760 011770       		MOV	(PC),11770(R0)
003400: 012000              		MOV	(R0)+,R0
003402: 012010              		MOV	(R0)+,(R0)
003404: 012020              		MOV	(R0)+,(R0)+
003406: 012030              		MOV	(R0)+,@(R0)+
003410: 012040              		MOV	(R0)+,-(R0)
003412: 012050              		MOV	(R0)+,@-(R0)
003414: 012060 012070       		MOV	(R0)+,12070(R0)
003420: 012100              		MOV	(R1)+,R0
003422: 012110              		MOV	(R1)+,(R0)
003424: 012120              		MOV	(R1)+,(R0)+
003426: 012130              		MOV	(R1)+,@(R0)+
003430: 012140              		MOV	(R1)+,-(R0)
003432: 012150              		MOV	(R1)+,@-(R0)
003434: 012160 012170       		MOV	(R1)+,12170(R0)
003440: 012200              		MOV	(R2)+,R0
003442: 012210              		MOV	(R2)+,(R0)
003444: 012220              		MOV	(R2)+,(R0)+
003446: 012230              		MOV	(R2)+,@(R0)+
003450: 012240              		MOV	(R2)+,-(R0)
003452: 012250              		MOV	(R2)+,@-(R0)
003454: 012260 012270       		MOV	(R2)+,12270(R0)
003460: 012300              		MOV	(R3)+,R0
003462: 012310              		MOV	(R3)+,(R0)
003464: 012320              		MOV	(R3)+,(R0)+
003466: 012330              		MOV	(R3)+,@(R0)+
003470: 012340              		MOV	(R3)+,-(R0)
003472: 012350              		MOV	(R3)+,@-(R0)
003474: 012360 012370       		MOV	(R3)+,12370(R0)
003500: 012400              		MOV	(R4)+,R0
003502: 012410              		MOV	(R4)+,(R0)
003504: 012420              		MOV	(R4)+,(R0)+
003506: 012430              		MOV	(R4)+,@(R0)+
003510: 012440              		MOV	(R4)+,-(R0)
003512: 012450              		MOV	(R4)+,@-(R0)
003514: 012460 012470       		MOV	(R4)+,12470(R0)
003520: 012500              		MOV	(R5)+,R0
003522: 012510              		MOV	(R5)+,(R0)
003524: 012520              		MOV	(R5)+,(R0)+
003526: 012530              		MOV	(R5)+,@(R0)+
003530: 012540              		MOV	(R5)+,-(R0)
003532: 012550              		MOV	(R5)+,@-(R0)
003534: 012560 012570       		MOV	(R5)+,12570(R0)
003540: 012600              		MOV	(SP)+,R0
003542: 012610              		MOV	(SP)+,(R0)
003544: 012620              		MOV	(SP)+,(R0)+
003546: 012630              		MOV	(SP)+,@(R0)+
003550: 012640              		MOV	(SP)+,-(R0)
003552: 012650              		MOV	(SP)+,@-(R0)
003554: 012660 012670       		MOV	(SP)+,12670(R0)
003560: 012700 012710       		MOV	#12710,R0
003564: 012720 012730       		MOV	#12730,(R0)+
003570: 012740 012750       		MOV	#12750,-(R0)
003574: 012760 012770 013000		MOV	#12770,13000(R0)
003602: 013010              		MOV	@(R0)+,(R0)
003604: 013020              		MOV	@(R0)+,(R0)+
003606: 013030              		MOV	@(R0)+,@(R0)+
003610: 013040              		MOV	@(R0)+,-(R0)
003612: 013050              		MOV	@(R0)+,@-(R0)
003614: 013060 013070       		MOV	@(R0)+,13070(R0)
003620: 013100              		MOV	@(R1)+,R0
003622: 013110              		MOV	@(R1)+,(R0)
003624: 013120              		MOV	@(R1)+,(R0)+
003626: 013130              		MOV	@(R1)+,@(R0)+
003630: 013140              		MOV	@(R1)+,-(R0)
003632: 013150              		MOV	@(R1)+,@-(R0)
003634: 013160 013170       		MOV	@(R1)+,13170(R0)
003640: 013200              		MOV	@(R2)+,R0
003642: 013210              		MOV	@(R2)+,(R0)
003644: 013220              		MOV	@(R2)+,(R0)+
003646: 013230              		MOV	@(R2)+,@(R0)+
003650: 013240              		MOV	@(R2)+,-(R0)
003652: 013250              		MOV	@(R2)+,@-(R0)
003654: 013260 013270       		MOV	@(R2)+,13270(R0)
003660: 013300              		MOV	@(R3)+,R0
003662: 013310              		MOV	@(R3)+,(R0)
003664: 013320              		MOV	@(R3)+,(R0)+
003666: 013330              		MOV	@(R3)+,@(R0)+
003670: 013340              		MOV	@(R3)+,-(R0)
003672: 013350              		MOV	@(R3)+,@-(R0)
003674: 013360 013370       		MOV	@(R3)+,13370(R0)
003700: 013400              		MOV	@(R4)+,R0
003702: 013410              		MOV	@(R4)+,(R0)
003704: 013420              		MOV	@(R4)+,(R0)+
003706: 013430              		MOV	@(R4)+,@(R0)+
003710: 013440              		MOV	@(R4)+,-(R0)
003712: 013450              		MOV	@(R4)+,@-(R0)
003714: 013460 013470       		MOV	@(R4)+,13470(R0)
003720: 013500              		MOV	@(R5)+,R0
003722: 013510              		MOV	@(R5)+,(R0)
003724: 013520              		MOV	@(R5)+,(R0)+
003726: 013530              		MOV	@(R5)+,@(R0)+
003730: 013540              		MOV	@(R5)+,-(R0)
003732: 013550              		MOV	@(R5)+,@-(R0)
003734: 013560 013570       		MOV	@(R5)+,13570(R0)
003740: 013600              		MOV	@(SP)+,R0
003742: 013610              		MOV	@(SP)+,(R0)
003744: 013620              		MOV	@(SP)+,(R0)+
003746: 013630              		MOV	@(SP)+,@(R0)+
003750: 013640              		MOV	@(SP)+,-(R0)
003752: 013650              		MOV	@(SP)+,@-(R0)
003754: 013660 013670       		MOV	@(SP)+,13670(R0)
003760: 013700 013710       		MOV	@#L210,R0
003764: 013720 013730       		MOV	@#L211,(R0)+
003770: 013740 013750       		MOV	@#L212,-(R0)
003774: 013760 013770 014000		MOV	@#L213,14000(R0)
004002: 014010              		MOV	-(R0),(R0)
004004: 014020              		MOV	-(R0),(R0)+
004006: 014030              		MOV	-(R0),@(R0)+
004010: 014040              		MOV	-(R0),-(R0)
004012: 014050              		MOV	-(R0),@-(R0)
004014: 014060 014070       		MOV	-(R0),14070(R0)
004020: 014100              		MOV	-(R1),R0
004022: 014110              		MOV	-(R1),(R0)
004024: 014120              		MOV	-(R1),(R0)+
004026: 014130              		MOV	-(R1),@(R0)+
004030: 014140              		MOV	-(R1),-(R0)
004032: 014150              		MOV	-(R1),@-(R0)
004034: 014160 014170       		MOV	-(R1),14170(R0)
004040: 014200              		MOV	-(R2),R0
004042: 014210              		MOV	-(R2),(R0)
004044: 014220              		MOV	-(R2),(R0)+
004046: 014230              		MOV	-(R2),@(R0)+
004050: 014240              		MOV	-(R2),-(R0)
004052: 014250              		MOV	-(R2),@-(R0)
004054: 014260 014270       		MOV	-(R2),14270(R0)
004060: 014300              		MOV	-(R3),R0
004062: 014310              		MOV	-(R3),(R0)
004064: 014320              		MOV	-(R3),(R0)+
004066: 014330              		MOV	-(R3),@(R0)+
004070: 014340              		MOV	-(R3),-(R0)
004072: 014350              		MOV	-(R3),@-(R0)
004074: 014360 014370       		MOV	-(R3),14370(R0)
004100: 014400              		MOV	-(R4),R0
004102: 014410              		MOV	-(R4),(R0)
004104: 014420              		MOV	-(R4),(R0)+
004106: 014430              		MOV	-(R4),@(R0)+
004110: 014440              		MOV	-(R4),-(R0)
004112: 014450              		MOV	-(R4),@-(R0)
004114: 014460 014470       		MOV	-(R4),14470(R0)
004120: 014500              		MOV	-(R5),R0
004122: 014510              		MOV	-(R5),(R0)
004124: 014520              		MOV	-(R5),(R0)+
004126: 014530              		MOV	-(R5),@(R0)+
004130: 014540              		MOV	-(R5),-(R0)
004132: 014550              		MOV	-(R5),@-(R0)
004134: 014560 014570       		MOV	-(R5),14570(R0)
004140: 014600              		MOV	-(SP),R0
004142: 014610              		MOV	-(SP),(R0)
004144: 014620              		MOV	-(SP),(R0)+
004146: 014630              		MOV	-(SP),@(R0)+
004150: 014640              		MOV	-(SP),-(R0)
004152: 014650              		MOV	-(SP),@-(R0)
004154: 014660 014670       		MOV	-(SP),14670(R0)
004160: 014700              		MOV	-(PC),R0
004162: 014710              		MOV	-(PC),(R0)
004164: 014720              		MOV	-(PC),(R0)+
004166: 014730              		MOV	-(PC),@(R0)+
004170: 014740              		MOV	-(PC),-(R0)
004172: 014750              		MOV	-(PC),@-(R0)
004174: 014760 014770       		MOV	-(PC),14770(R0)
004200: 015000              		MOV	@-(R0),R0
004202: 015010              		MOV	@-(R0),(R0)
004204: 015020              		MOV	@-(R0),(R0)+
004206: 015030              		MOV	@-(R0),@(R0)+
004210: 015040              		MOV	@-(R0),-(R0)
004212: 015050              		MOV	@-(R0),@-(R0)
004214: 015060 015070       		MOV	@-(R0),15070(R0)
004220: 015100              		MOV	@-(R1),R0
004222: 015110              		MOV	@-(R1),(R0)
004224: 015120              		MOV	@-(R1),(R0)+
004226: 015130              		MOV	@-(R1),@(R0)+
004230: 015140              		MOV	@-(R1),-(R0)
004232: 015150              		MOV	@-(R1),@-(R0)
004234: 015160 015170       		MOV	@-(R1),15170(R0)
004240: 015200              		MOV	@-(R2),R0
004242: 015210              		MOV	@-(R2),(R0)
004244: 015220              		MOV	@-(R2),(R0)+
004246: 015230              		MOV	@-(R2),@(R0)+
004250: 015240              		MOV	@-(R2),-(R0)
004252: 015250              		MOV	@-(R2),@-(R0)
004254: 015260 015270       		MOV	@-(R2),15270(R0)
004260: 015300              		MOV	@-(R3),R0
004262: 015310              		MOV	@-(R3),(R0)
004264: 015320              		MOV	@-(R3),(R0)+
004266: 015330              		MOV	@-(R3),@(R0)+
004270: 015340              		MOV	@-(R3),-(R0)
004272: 015350              		MOV	@-(R3),@-(R0)
004274: 015360 015370       		MOV	@-(R3),15370(R0)
004300: 015400              		MOV	@-(R4),R0
004302: 015410              		MOV	@-(R4),(R0)
004304: 015420              		MOV	@-(R4),(R0)+
004306: 015430              		MOV	@-(R4),@(R0)+
004310: 015440              		MOV	@-(R4),-(R0)
004312: 015450              		MOV	@-(R4),@-(R0)
004314: 015460 015470       		MOV	@-(R4),15470(R0)
004320: 015500              		MOV	@-(R5),R0
004322: 015510              		MOV	@-(R5),(R0)
004324: 015520              		MOV	@-(R5),(R0)+
004326: 015530              		MOV	@-(R5),@(R0)+
004330: 015540              		MOV	@-(R5),-(R0)
004332: 015550              		MOV	@-(R5),@-(R0)
004334: 015560 015570       		MOV	@-(R5),15570(R0)
004340: 015600              		MOV	@-(SP),R0
004342: 015610              		MOV	@-(SP),(R0)
004344: 015620              		MOV	@-(SP),(R0)+
004346: 015630              		MOV	@-(SP),@(R0)+
004350: 015640              		MOV	@-(SP),-(R0)
004352: 015650              		MOV	@-(SP),@-(R0)
004354: 015660 015670       		MOV	@-(SP),15670(R0)
004360: 015700              		MOV	@-(PC),R0
004362: 015710              		MOV	@-(PC),(R0)
004364: 015720              		MOV	@-(PC),(R0)+
004366: 015730              		MOV	@-(PC),@(R0)+
004370: 015740              		MOV	@-(PC),-(R0)
004372: 015750              		MOV	@-(PC),@-(R0)
004374: 015760 015770       		MOV	@-(PC),15770(R0)
004400: 016000 016010       		MOV	16010(R0),R0
004404: 016020 016030       		MOV	16030(R0),(R0)+
004410: 016040 016050       		MOV	16050(R0),-(R0)
004414: 016060 016070 016100		MOV	16070(R0),16100(R0)
004422: 016110 016120       		MOV	16120(R1),(R0)
004426: 016130 016140       		MOV	16140(R1),@(R0)+
004432: 016150 016160       		MOV	16160(R1),@-(R0)
004436: 016170 016200 016210		MOV	16200(R1),@16210(R0)
004444: 016220 016230       		MOV	16230(R2),(R0)+
004450: 016240 016250       		MOV	16250(R2),-(R0)
004454: 016260 016270 016300		MOV	16270(R2),16300(R0)
004462: 016310 016320       		MOV	16320(R3),(R0)
004466: 016330 016340       		MOV	16340(R3),@(R0)+
004472: 016350 016360       		MOV	16360(R3),@-(R0)
004476: 016370 016400 016410		MOV	16400(R3),@16410(R0)
004504: 016420 016430       		MOV	16430(R4),(R0)+
004510: 016440 016450       		MOV	16450(R4),-(R0)
004514: 016460 016470 016500		MOV	16470(R4),16500(R0)
004522: 016510 016520       		MOV	16520(R5),(R0)
004526: 016530 016540       		MOV	16540(R5),@(R0)+
004532: 016550 016560       		MOV	16560(R5),@-(R0)
004536: 016570 016600 016610		MOV	16600(R5),@16610(R0)
004544: 016620 016630       		MOV	16630(SP),(R0)+
004550: 016640 016650       		MOV	16650(SP),-(R0)
004554: 016660 016670 016700		MOV	16670(SP),16700(R0)
004562: 016710 016720       		MOV	L214,(R0)
004566: 016730 016740       		MOV	L215,@(R0)+
004572: 016750 016760       		MOV	L216+2,@-(R0)
004576: 016770 017000 017010		MOV	L217,@17010(R0)
004604: 017020 017030       		MOV	@17030(R0),(R0)+
004610: 017040 017050       		MOV	@17050(R0),-(R0)
004614: 017060 017070 017100		MOV	@17070(R0),17100(R0)
004622: 017110 017120       		MOV	@17120(R1),(R0)
004626: 017130 017140       		MOV	@17140(R1),@(R0)+
004632: 017150 017160       		MOV	@17160(R1),@-(R0)
004636: 017170 017200 017210		MOV	@17200(R1),@17210(R0)
004644: 017220 017230       		MOV	@17230(R2),(R0)+
004650: 017240 017250       		MOV	@17250(R2),-(R0)
004654: 017260 017270 017300		MOV	@17270(R2),17300(R0)
004662: 017310 017320       		MOV	@17320(R3),(R0)
004666: 017330 017340       		MOV	@17340(R3),@(R0)+
004672: 017350 017360       		MOV	@17360(R3),@-(R0)
004676: 017370 017400 017410		MOV	@17400(R3),@17410(R0)
004704: 017420 017430       		MOV	@17430(R4),(R0)+
004710: 017440 017450       		MOV	@17450(R4),-(R0)
004714: 017460 017470 017500		MOV	@17470(R4),17500(R0)
004722: 017510 017520       		MOV	@17520(R5),(R0)
004726: 017530 017540       		MOV	@17540(R5),@(R0)+
004732: 017550 017560       		MOV	@17560(R5),@-(R0)
004736: 017570 017600 017610		MOV	@17600(R5),@17610(R0)
004744: 017620 017630       		MOV	@17630(SP),(R0)+
004750: 017640 017650       		MOV	@17650(SP),-(R0)
004754: 017660 017670 017700		MOV	@17670(SP),17700(R0)
004762: 017710 017720       		MOV	@L218+2,(R0)
004766: 017730 017740       		MOV	@L219,@(R0)+
004772: 017750 017760       		MOV	@L220+2,@-(R0)
004776: 017770 020000 020010		MOV	@L221+4,@20010(R0)
005004: 020020              		CMP	R0,(R0)+
005006: 020030              		CMP	R0,@(R0)+
005010: 020040              		CMP	R0,-(R0)
005012: 020050              		CMP	R0,@-(R0)
005014: 020060 020070       		CMP	R0,20070(R0)
005020: 020100              		CMP	R1,R0
005022: 020110              		CMP	R1,(R0)
005024: 020120              		CMP	R1,(R0)+
005026: 020130              		CMP	R1,@(R0)+
005030: 020140              		CMP	R1,-(R0)
005032: 020150              		CMP	R1,@-(R0)
005034: 020160 020170       		CMP	R1,20170(R0)
005040: 020200              		CMP	R2,R0
005042: 020210              		CMP	R2,(R0)
005044: 020220              		CMP	R2,(R0)+
005046: 020230              		CMP	R2,@(R0)+
005050: 020240              		CMP	R2,-(R0)
005052: 020250              		CMP	R2,@-(R0)
005054: 020260 020270       		CMP	R2,20270(R0)
005060: 020300              		CMP	R3,R0
005062: 020310              		CMP	R3,(R0)
005064: 020320              		CMP	R3,(R0)+
005066: 020330              		CMP	R3,@(R0)+
005070: 020340              		CMP	R3,-(R0)
005072: 020350              		CMP	R3,@-(R0)
005074: 020360 020370       		CMP	R3,20370(R0)
005100: 020400              		CMP	R4,R0
005102: 020410              		CMP	R4,(R0)
005104: 020420              		CMP	R4,(R0)+
005106: 020430              		CMP	R4,@(R0)+
005110: 020440              		CMP	R4,-(R0)
005112: 020450              		CMP	R4,@-(R0)
005114: 020460 020470       		CMP	R4,20470(R0)
005120: 020500              		CMP	R5,R0
005122: 020510              		CMP	R5,(R0)
005124: 020520              		CMP	R5,(R0)+
005126: 020530              		CMP	R5,@(R0)+
005130: 020540              		CMP	R5,-(R0)
005132: 020550              		CMP	R5,@-(R0)
005134: 020560 020570       		CMP	R5,20570(R0)
005140: 020600              		CMP	SP,R0
005142: 020610              		CMP	SP,(R0)
005144: 020620              		CMP	SP,(R0)+
005146: 020630              		CMP	SP,@(R0)+
005150: 020640              		CMP	SP,-(R0)
005152: 020650              		CMP	SP,@-(R0)
005154: 020660 020670       		CMP	SP,20670(R0)
005160: 020700              		CMP	PC,R0
005162: 020710              		CMP	PC,(R0)
005164: 020720              		CMP	PC,(R0)+
005166: 020730              		CMP	PC,@(R0)+
005170: 020740              		CMP	PC,-(R0)
005172: 020750              		CMP	PC,@-(R0)
005174: 020760 020770       		CMP	PC,20770(R0)
005200: 021000              		CMP	(R0),R0
005202: 021010              		CMP	(R0),(R0)
005204: 021020              		CMP	(R0),(R0)+
005206: 021030              		CMP	(R0),@(R0)+
005210: 021040              		CMP	(R0),-(R0)
005212: 021050              		CMP	(R0),@-(R0)
005214: 021060 021070       		CMP	(R0),21070(R0)
005220: 021100              		CMP	(R1),R0
005222: 021110              		CMP	(R1),(R0)
005224: 021120              		CMP	(R1),(R0)+
005226: 021130              		CMP	(R1),@(R0)+
005230: 021140              		CMP	(R1),-(R0)
005232: 021150              		CMP	(R1),@-(R0)
005234: 021160 021170       		CMP	(R1),21170(R0)
005240: 021200              		CMP	(R2),R0
005242: 021210              		CMP	(R2),(R0)
005244: 021220              		CMP	(R2),(R0)+
005246: 021230              		CMP	(R2),@(R0)+
005250: 021240              		CMP	(R2),-(R0)
005252: 021250              		CMP	(R2),@-(R0)
005254: 021260 021270       		CMP	(R2),21270(R0)
005260: 021300              		CMP	(R3),R0
005262: 021310              		CMP	(R3),(R0)
005264: 021320              		CMP	(R3),(R0)+
005266: 021330              		CMP	(R3),@(R0)+
005270: 021340              		CMP	(R3),-(R0)
005272: 021350              		CMP	(R3),@-(R0)
005274: 021360 021370       		CMP	(R3),21370(R0)
005300: 021400              		CMP	(R4),R0
005302: 021410              		CMP	(R4),(R0)
005304: 021420              		CMP	(R4),(R0)+
005306: 021430              		CMP	(R4),@(R0)+
005310: 021440              		CMP	(R4),-(R0)
005312: 021450              		CMP	(R4),@-(R0)
005314: 021460 021470       		CMP	(R4),21470(R0)
005320: 021500              		CMP	(R5),R0
005322: 021510              		CMP	(R5),(R0)
005324: 021520              		CMP	(R5),(R0)+
005326: 021530              		CMP	(R5),@(R0)+
005330: 021540              		CMP	(R5),-(R0)
005332: 021550              		CMP	(R5),@-(R0)
005334: 021560 021570       		CMP	(R5),21570(R0)
005340: 021600              		CMP	(SP),R0
005342: 021610              		CMP	(SP),(R0)
005344: 021620              		CMP	(SP),(R0)+
005346: 021630              		CMP	(SP),@(R0)+
005350: 021640              		CMP	(SP),-(R0)
005352: 021650              		CMP	(SP),@-(R0)
005354: 021660 021670       		CMP	(SP),21670(R0)
005360: 021700              		CMP	(PC),R0
005362: 021710              		CMP	(PC),(R0)
005364: 021720              		CMP	(PC),(R0)+
005366: 021730              		CMP	(PC),@(R0)+
005370: 021740              		CMP	(PC),-(R0)
005372: 021750              		CMP	(PC),@-(R0)
005374: 021760 021770       		CMP	(PC),21770(R0)
005400: 022000              		CMP	(R0)+,R0
005402: 022010              		CMP	(R0)+,(R0)
005404: 022020              		CMP	(R0)+,(R0)+
005406: 022030              		CMP	(R0)+,@(R0)+
005410: 022040              		CMP	(R0)+,-(R0)
005412: 022050              		CMP	(R0)+,@-(R0)
005414: 022060 022070       		CMP	(R0)+,22070(R0)
005420: 022100              		CMP	(R1)+,R0
005422: 022110              		CMP	(R1)+,(R0)
005424: 022120              		CMP	(R1)+,(R0)+
005426: 022130              		CMP	(R1)+,@(R0)+
005430: 022140              		CMP	(R1)+,-(R0)
005432: 022150              		CMP	(R1)+,@-(R0)
005434: 022160 022170       		CMP	(R1)+,22170(R0)
005440: 022200              		CMP	(R2)+,R0
005442: 022210              		CMP	(R2)+,(R0)
005444: 022220              		CMP	(R2)+,(R0)+
005446: 022230              		CMP	(R2)+,@(R0)+
005450: 022240              		CMP	(R2)+,-(R0)
005452: 022250              		CMP	(R2)+,@-(R0)
005454: 022260 022270       		CMP	(R2)+,22270(R0)
005460: 022300              		CMP	(R3)+,R0
005462: 022310              		CMP	(R3)+,(R0)
005464: 022320              		CMP	(R3)+,(R0)+
005466: 022330              		CMP	(R3)+,@(R0)+
005470: 022340              		CMP	(R3)+,-(R0)
005472: 022350              		CMP	(R3)+,@-(R0)
005474: 022360 022370       		CMP	(R3)+,22370(R0)
005500: 022400              		CMP	(R4)+,R0
005502: 022410              		CMP	(R4)+,(R0)
005504: 022420              		CMP	(R4)+,(R0)+
005506: 022430              		CMP	(R4)+,@(R0)+
005510: 022440              		CMP	(R4)+,-(R0)
005512: 022450              		CMP	(R4)+,@-(R0)
005514: 022460 022470       		CMP	(R4)+,22470(R0)
005520: 022500              		CMP	(R5)+,R0
005522: 022510              		CMP	(R5)+,(R0)
005524: 022520              		CMP	(R5)+,(R0)+
005526: 022530              		CMP	(R5)+,@(R0)+
005530: 022540              		CMP	(R5)+,-(R0)
005532: 022550              		CMP	(R5)+,@-(R0)
005534: 022560 022570       		CMP	(R5)+,22570(R0)
005540: 022600              		CMP	(SP)+,R0
005542: 022610              		CMP	(SP)+,(R0)
005544: 022620              		CMP	(SP)+,(R0)+
005546: 022630              		CMP	(SP)+,@(R0)+
005550: 022640              		CMP	(SP)+,-(R0)
005552: 022650              		CMP	(SP)+,@-(R0)
005554: 022660 022670       		CMP	(SP)+,22670(R0)
005560: 022700 022710       		CMP	#22710,R0
005564: 022720 022730       		CMP	#22730,(R0)+
005570: 022740 022750       		CMP	#22750,-(R0)
005574: 022760 022770 023000		CMP	#22770,23000(R0)
005602: 023010              		CMP	@(R0)+,(R0)
005604: 023020              		CMP	@(R0)+,(R0)+
005606: 023030              		CMP	@(R0)+,@(R0)+
005610: 023040              		CMP	@(R0)+,-(R0)
005612: 023050              		CMP	@(R0)+,@-(R0)
005614: 023060 023070       		CMP	@(R0)+,23070(R0)
005620: 023100              		CMP	@(R1)+,R0
005622: 023110              		CMP	@(R1)+,(R0)
005624: 023120              		CMP	@(R1)+,(R0)+
005626: 023130              		CMP	@(R1)+,@(R0)+
005630: 023140              		CMP	@(R1)+,-(R0)
005632: 023150              		CMP	@(R1)+,@-(R0)
005634: 023160 023170       		CMP	@(R1)+,23170(R0)
005640: 023200              		CMP	@(R2)+,R0
005642: 023210              		CMP	@(R2)+,(R0)
005644: 023220              		CMP	@(R2)+,(R0)+
005646: 023230              		CMP	@(R2)+,@(R0)+
005650: 023240              		CMP	@(R2)+,-(R0)
005652: 023250              		CMP	@(R2)+,@-(R0)
005654: 023260 023270       		CMP	@(R2)+,23270(R0)
005660: 023300              		CMP	@(R3)+,R0
005662: 023310              		CMP	@(R3)+,(R0)
005664: 023320              		CMP	@(R3)+,(R0)+
005666: 023330              		CMP	@(R3)+,@(R0)+
005670: 023340              		CMP	@(R3)+,-(R0)
005672: 023350              		CMP	@(R3)+,@-(R0)
005674: 023360 023370       		CMP	@(R3)+,23370(R0)
005700: 023400              		CMP	@(R4)+,R0
005702: 023410              		CMP	@(R4)+,(R0)
005704: 023420              		CMP	@(R4)+,(R0)+
005706: 023430              		CMP	@(R4)+,@(R0)+
005710: 023440              		CMP	@(R4)+,-(R0)
005712: 023450              		CMP	@(R4)+,@-(R0)
005714: 023460 023470       		CMP	@(R4)+,23470(R0)
005720: 023500              		CMP	@(R5)+,R0
005722: 023510              		CMP	@(R5)+,(R0)
005724: 023520              		CMP	@(R5)+,(R0)+
005726: 023530              		CMP	@(R5)+,@(R0)+
005730: 023540              		CMP	@(R5)+,-(R0)
005732: 023550              		CMP	@(R5)+,@-(R0)
005734: 023560 023570       		CMP	@(R5)+,23570(R0)
005740: 023600              		CMP	@(SP)+,R0
005742: 023610              		CMP	@(SP)+,(R0)
005744: 023620              		CMP	@(SP)+,(R0)+
005746: 023630              		CMP	@(SP)+,@(R0)+
005750: 023640              		CMP	@(SP)+,-(R0)
005752: 023650              		CMP	@(SP)+,@-(R0)
005754: 023660 023670       		CMP	@(SP)+,23670(R0)
005760: 023700 023710       		CMP	@#L222,R0
005764: 023720 023730       		CMP	@#L223,(R0)+
005770: 023740 023750       		CMP	@#L224,-(R0)
005774: 023760 023770 024000		CMP	@#L225,24000(R0)
006002: 024010              		CMP	-(R0),(R0)
006004: 024020              		CMP	-(R0),(R0)+
006006: 024030              		CMP	-(R0),@(R0)+
006010: 024040              		CMP	-(R0),-(R0)
006012: 024050              		CMP	-(R0),@-(R0)
006014: 024060 024070       		CMP	-(R0),24070(R0)
006020: 024100              		CMP	-(R1),R0
006022: 024110              		CMP	-(R1),(R0)
006024: 024120              		CMP	-(R1),(R0)+
006026: 024130              		CMP	-(R1),@(R0)+
006030: 024140              		CMP	-(R1),-(R0)
006032: 024150              		CMP	-(R1),@-(R0)
006034: 024160 024170       		CMP	-(R1),24170(R0)
006040: 024200              		CMP	-(R2),R0
006042: 024210              		CMP	-(R2),(R0)
006044: 024220              		CMP	-(R2),(R0)+
006046: 024230              		CMP	-(R2),@(R0)+
006050: 024240              		CMP	-(R2),-(R0)
006052: 024250              		CMP	-(R2),@-(R0)
006054: 024260 024270       		CMP	-(R2),24270(R0)
006060: 024300              		CMP	-(R3),R0
006062: 024310              		CMP	-(R3),(R0)
006064: 024320              		CMP	-(R3),(R0)+
006066: 024330              		CMP	-(R3),@(R0)+
006070: 024340              		CMP	-(R3),-(R0)
006072: 024350              		CMP	-(R3),@-(R0)
006074: 024360 024370       		CMP	-(R3),24370(R0)
006100: 024400              		CMP	-(R4),R0
006102: 024410              		CMP	-(R4),(R0)
006104: 024420              		CMP	-(R4),(R0)+
006106: 024430              		CMP	-(R4),@(R0)+
006110: 024440              		CMP	-(R4),-(R0)
006112: 024450              		CMP	-(R4),@-(R0)
006114: 024460 024470       		CMP	-(R4),24470(R0)
006120: 024500              		CMP	-(R5),R0
006122: 024510              		CMP	-(R5),(R0)
006124: 024520              		CMP	-(R5),(R0)+
006126: 024530              		CMP	-(R5),@(R0)+
006130: 024540              		CMP	-(R5),-(R0)
006132: 024550              		CMP	-(R5),@-(R0)
006134: 024560 024570       		CMP	-(R5),24570(R0)
006140: 024600              		CMP	-(SP),R0
006142: 024610              		CMP	-(SP),(R0)
006144: 024620              		CMP	-(SP),(R0)+
006146: 024630              		CMP	-(SP),@(R0)+
006150: 024640              		CMP	-(SP),-(R0)
006152: 024650              		CMP	-(SP),@-(R0)
006154: 024660 024670       		CMP	-(SP),24670(R0)
006160: 024700              		CMP	-(PC),R0
006162: 024710              		CMP	-(PC),(R0)
006164: 024720              		CMP	-(PC),(R0)+
006166: 024730              		CMP	-(PC),@(R0)+
006170: 024740              		CMP	-(PC),-(R0)
006172: 024750              		CMP	-(PC),@-(R0)
006174: 024760 024770       		CMP	-(PC),24770(R0)
006200: 025000              		CMP	@-(R0),R0
006202: 025010              		CMP	@-(R0),(R0)
006204: 025020              		CMP	@-(R0),(R0)+
006206: 025030              		CMP	@-(R0),@(R0)+
006210: 025040              		CMP	@-(R0),-(R0)
006212: 025050              		CMP	@-(R0),@-(R0)
006214: 025060 025070       		CMP	@-(R0),25070(R0)
006220: 025100              		CMP	@-(R1),R0
006222: 025110              		CMP	@-(R1),(R0)
006224: 025120              		CMP	@-(R1),(R0)+
006226: 025130              		CMP	@-(R1),@(R0)+
006230: 025140              		CMP	@-(R1),-(R0)
006232: 025150              		CMP	@-(R1),@-(R0)
006234: 025160 025170       		CMP	@-(R1),25170(R0)
006240: 025200              		CMP	@-(R2),R0
006242: 025210              		CMP	@-(R2),(R0)
006244: 025220              		CMP	@-(R2),(R0)+
006246: 025230              		CMP	@-(R2),@(R0)+
006250: 025240              		CMP	@-(R2),-(R0)
006252: 025250              		CMP	@-(R2),@-(R0)
006254: 025260 025270       		CMP	@-(R2),25270(R0)
006260: 025300              		CMP	@-(R3),R0
006262: 025310              		CMP	@-(R3),(R0)
006264: 025320              		CMP	@-(R3),(R0)+
006266: 025330              		CMP	@-(R3),@(R0)+
006270: 025340              		CMP	@-(R3),-(R0)
006272: 025350              		CMP	@-(R3),@-(R0)
006274: 025360 025370       		CMP	@-(R3),25370(R0)
006300: 025400              		CMP	@-(R4),R0
006302: 025410              		CMP	@-(R4),(R0)
006304: 025420              		CMP	@-(R4),(R0)+
006306: 025430              		CMP	@-(R4),@(R0)+
006310: 025440              		CMP	@-(R4),-(R0)
006312: 025450              		CMP	@-(R4),@-(R0)
006314: 025460 025470       		CMP	@-(R4),25470(R0)
006320: 025500              		CMP	@-(R5),R0
006322: 025510              		CMP	@-(R5),(R0)
006324: 025520              		CMP	@-(R5),(R0)+
006326: 025530              		CMP	@-(R5),@(R0)+
006330: 025540              		CMP	@-(R5),-(R0)
006332: 025550              		CMP	@-(R5),@-(R0)
006334: 025560 025570       		CMP	@-(R5),25570(R0)
006340: 025600              		CMP	@-(SP),R0
006342: 025610              		CMP	@-(SP),(R0)
006344: 025620              		CMP	@-(SP),(R0)+
006346: 025630              		CMP	@-(SP),@(R0)+
006350: 025640              		CMP	@-(SP),-(R0)
006352: 025650              		CMP	@-(SP),@-(R0)
006354: 025660 025670       		CMP	@-(SP),25670(R0)
006360: 025700              		CMP	@-(PC),R0
006362: 025710              		CMP	@-(PC),(R0)
006364: 025720              		CMP	@-(PC),(R0)+
006366: 025730              		CMP	@-(PC),@(R0)+
006370: 025740              		CMP	@-(PC),-(R0)
006372: 025750              		CMP	@-(PC),@-(R0)
006374: 025760 025770       		CMP	@-(PC),25770(R0)
006400: 026000 026010       		CMP	26010(R0),R0
006404: 026020 026030       		CMP	26030(R0),(R0)+
006410: 026040 026050       		CMP	26050(R0),-(R0)
006414: 026060 026070 026100		CMP	26070(R0),26100(R0)
006422: 026110 026120       		CMP	26120(R1),(R0)
006426: 026130 026140       		CMP	26140(R1),@(R0)+
006432: 026150 026160       		CMP	26160(R1),@-(R0)
006436: 026170 026200 026210		CMP	26200(R1),@26210(R0)
006444: 026220 026230       		CMP	26230(R2),(R0)+
006450: 026240 026250       		CMP	26250(R2),-(R0)
006454: 026260 026270 026300		CMP	26270(R2),26300(R0)
006462: 026310 026320       		CMP	26320(R3),(R0)
006466: 026330 026340       		CMP	26340(R3),@(R0)+
006472: 026350 026360       		CMP	26360(R3),@-(R0)
006476: 026370 026400 026410		CMP	26400(R3),@26410(R0)
006504: 026420 026430       		CMP	26430(R4),(R0)+
006510: 026440 026450       		CMP	26450(R4),-(R0)
006514: 026460 026470 026500		CMP	26470(R4),26500(R0)
006522: 026510 026520       		CMP	26520(R5),(R0)
006526: 026530 026540       		CMP	26540(R5),@(R0)+
006532: 026550 026560       		CMP	26560(R5),@-(R0)
006536: 026570 026600 026610		CMP	26600(R5),@26610(R0)
006544: 026620 026630       		CMP	26630(SP),(R0)+
006550: 026640 026650       		CMP	26650(SP),-(R0)
006554: 026660 026670 026700		CMP	26670(SP),26700(R0)
006562: 026710 026720       		CMP	L226,(R0)
006566: 026730 026740       		CMP	L227,@(R0)+
006572: 026750 026760       		CMP	L228+2,@-(R0)
006576: 026770 027000 027010		CMP	L229,@27010(R0)
006604: 027020 027030       		CMP	@27030(R0),(R0)+
006610: 027040 027050       		CMP	@27050(R0),-(R0)
006614: 027060 027070 027100		CMP	@27070(R0),27100(R0)
006622: 027110 027120       		CMP	@27120(R1),(R0)
006626: 027130 027140       		CMP	@27140(R1),@(R0)+
006632: 027150 027160       		CMP	@27160(R1),@-(R0)
006636: 027170 027200 027210		CMP	@27200(R1),@27210(R0)
006644: 027220 027230       		CMP	@27230(R2),(R0)+
006650: 027240 027250       		CMP	@27250(R2),-(R0)
006654: 027260 027270 027300		CMP	@27270(R2),27300(R0)
006662: 027310 027320       		CMP	@27320(R3),(R0)
006666: 027330 027340       		CMP	@27340(R3),@(R0)+
006672: 027350 027360       		CMP	@27360(R3),@-(R0)
006676: 027370 027400 027410		CMP	@27400(R3),@27410(R0)
006704: 027420 027430       		CMP	@27430(R4),(R0)+
006710: 027440 027450       		CMP	@27450(R4),-(R0)
006714: 027460 027470 027500		CMP	@27470(R4),27500(R0)
006722: 027510 027520       		CMP	@27520(R5),(R0)
006726: 027530 027540       		CMP	@27540(R5),@(R0)+
006732: 027550 027560       		CMP	@27560(R5),@-(R0)
006736: 027570 027600 027610		CMP	@27600(R5),@27610(R0)
006744: 027620 027630       		CMP	@27630(SP),(R0)+
006750: 027640 027650       		CMP	@27650(SP),-(R0)
006754: 027660 027670 027700		CMP	@27670(SP),27700(R0)
006762: 027710 027720       		CMP	@L230+2,(R0)
006766: 027730 027740       		CMP	@L231,@(R0)+
006772: 027750 027760       		CMP	@L232+2,@-(R0)
006776: 027770 030000 030010		CMP	@L233+4,@30010(R0)
007004: 030020              		BIT	R0,(R0)+
007006: 030030              		BIT	R0,@(R0)+
007010: 030040              		BIT	R0,-(R0)
007012: 030050              		BIT	R0,@-(R0)
007014: 030060 030070       		BIT	R0,30070(R0)
007020: 030100              		BIT	R1,R0
007022: 030110              		BIT	R1,(R0)
007024: 030120              		BIT	R1,(R0)+
007026: 030130              		BIT	R1,@(R0)+
007030: 030140              		BIT	R1,-(R0)
007032: 030150              		BIT	R1,@-(R0)
007034: 030160 030170       		BIT	R1,30170(R0)
007040: 030200              		BIT	R2,R0
007042: 030210              		BIT	R2,(R0)
007044: 030220              		BIT	R2,(R0)+
007046: 030230              		BIT	R2,@(R0)+
007050: 030240              		BIT	R2,-(R0)
007052: 030250              		BIT	R2,@-(R0)
007054: 030260 030270       		BIT	R2,30270(R0)
007060: 030300              		BIT	R3,R0
007062: 030310              		BIT	R3,(R0)
007064: 030320              		BIT	R3,(R0)+
007066: 030330              		BIT	R3,@(R0)+
007070: 030340              		BIT	R3,-(R0)
007072: 030350              		BIT	R3,@-(R0)
007074: 030360 030370       		BIT	R3,30370(R0)
007100: 030400              		BIT	R4,R0
007102: 030410              		BIT	R4,(R0)
007104: 030420              		BIT	R4,(R0)+
007106: 030430              		BIT	R4,@(R0)+
007110: 030440              		BIT	R4,-(R0)
007112: 030450              		BIT	R4,@-(R0)
007114: 030460 030470       		BIT	R4,30470(R0)
007120: 030500              		BIT	R5,R0
007122: 030510              		BIT	R5,(R0)
007124: 030520              		BIT	R5,(R0)+
007126: 030530              		BIT	R5,@(R0)+
007130: 030540              		BIT	R5,-(R0)
007132: 030550              		BIT	R5,@-(R0)
007134: 030560 030570       		BIT	R5,30570(R0)
007140: 030600              		BIT	SP,R0
007142: 030610              		BIT	SP,(R0)
007144: 030620              		BIT	SP,(R0)+
007146: 030630              		BIT	SP,@(R0)+
007150: 030640              		BIT	SP,-(R0)
007152: 030650              		BIT	SP,@-(R0)
007154: 030660 030670       		BIT	SP,30670(R0)
007160: 030700              		BIT	PC,R0
007162: 030710              		BIT	PC,(R0)
007164: 030720              		BIT	PC,(R0)+
007166: 030730              		BIT	PC,@(R0)+
007170: 030740              		BIT	PC,-(R0)
007172: 030750              		BIT	PC,@-(R0)
007174: 030760 030770       		BIT	PC,30770(R0)
007200: 031000              		BIT	(R0),R0
007202: 031010              		BIT	(R0),(R0)
007204: 031020              		BIT	(R0),(R0)+
007206: 031030              		BIT	(R0),@(R0)+
007210: 031040              		BIT	(R0),-(R0)
007212: 031050              		BIT	(R0),@-(R0)
007214: 031060 031070       		BIT	(R0),31070(R0)
007220: 031100              		BIT	(R1),R0
007222: 031110              		BIT	(R1),(R0)
007224: 031120              		BIT	(R1),(R0)+
007226: 031130              		BIT	(R1),@(R0)+
007230: 031140              		BIT	(R1),-(R0)
007232: 031150              		BIT	(R1),@-(R0)
007234: 031160 031170       		BIT	(R1),31170(R0)
007240: 031200              		BIT	(R2),R0
007242: 031210              		BIT	(R2),(R0)
007244: 031220              		BIT	(R2),(R0)+
007246: 031230              		BIT	(R2),@(R0)+
007250: 031240              		BIT	(R2),-(R0)
007252: 031250              		BIT	(R2),@-(R0)
007254: 031260 031270       		BIT	(R2),31270(R0)
007260: 031300              		BIT	(R3),R0
007262: 031310              		BIT	(R3),(R0)
007264: 031320              		BIT	(R3),(R0)+
007266: 031330              		BIT	(R3),@(R0)+
007270: 031340              		BIT	(R3),-(R0)
007272: 031350              		BIT	(R3),@-(R0)
007274: 031360 031370       		BIT	(R3),31370(R0)
007300: 031400              		BIT	(R4),R0
007302: 031410              		BIT	(R4),(R0)
007304: 031420              		BIT	(R4),(R0)+
007306: 031430              		BIT	(R4),@(R0)+
007310: 031440              		BIT	(R4),-(R0)
007312: 031450              		BIT	(R4),@-(R0)
007314: 031460 031470       		BIT	(R4),31470(R0)
007320: 031500              		BIT	(R5),R0
007322: 031510              		BIT	(R5),(R0)
007324: 031520              		BIT	(R5),(R0)+
007326: 031530              		BIT	(R5),@(R0)+
007330: 031540              		BIT	(R5),-(R0)
007332: 031550              		BIT	(R5),@-(R0)
007334: 031560 031570       		BIT	(R5),31570(R0)
007340: 031600              		BIT	(SP),R0
007342: 031610              		BIT	(SP),(R0)
007344: 031620              		BIT	(SP),(R0)+
007346: 031630              		BIT	(SP),@(R0)+
007350: 031640              		BIT	(SP),-(R0)
007352: 031650              		BIT	(SP),@-(R0)
007354: 031660 031670       		BIT	(SP),31670(R0)
007360: 031700              		BIT	(PC),R0
007362: 031710              		BIT	(PC),(R0)
007364: 031720              		BIT	(PC),(R0)+
007366: 031730              		BIT	(PC),@(R0)+
007370: 031740              		BIT	(PC),-(R0)
007372: 031750              		BIT	(PC),@-(R0)
007374: 031760 031770       		BIT	(PC),31770(R0)
007400: 032000              		BIT	(R0)+,R0
007402: 032010              		BIT	(R0)+,(R0)
007404: 032020              		BIT	(R0)+,(R0)+
007406: 032030              		BIT	(R0)+,@(R0)+
007410: 032040              		BIT	(R0)+,-(R0)
007412: 032050              		BIT	(R0)+,@-(R0)
007414: 032060 032070       		BIT	(R0)+,32070(R0)
007420: 032100              		BIT	(R1)+,R0
007422: 032110              		BIT	(R1)+,(R0)
007424: 032120              		BIT	(R1)+,(R0)+
007426: 032130              		BIT	(R1)+,@(R0)+
007430: 032140              		BIT	(R1)+,-(R0)
007432: 032150              		BIT	(R1)+,@-(R0)
007434: 032160 032170       		BIT	(R1)+,32170(R0)
007440: 032200              		BIT	(R2)+,R0
007442: 032210              		BIT	(R2)+,(R0)
007444: 032220              		BIT	(R2)+,(R0)+
007446: 032230              		BIT	(R2)+,@(R0)+
007450: 032240              		BIT	(R2)+,-(R0)
007452: 032250              		BIT	(R2)+,@-(R0)
007454: 032260 032270       		BIT	(R2)+,32270(R0)
007460: 032300              		BIT	(R3)+,R0
007462: 032310              		BIT	(R3)+,(R0)
007464: 032320              		BIT	(R3)+,(R0)+
007466: 032330              		BIT	(R3)+,@(R0)+
007470: 032340              		BIT	(R3)+,-(R0)
007472: 032350              		BIT	(R3)+,@-(R0)
007474: 032360 032370       		BIT	(R3)+,32370(R0)
007500: 032400              		BIT	(R4)+,R0
007502: 032410              		BIT	(R4)+,(R0)
007504: 032420              		BIT	(R4)+,(R0)+
007506: 032430              		BIT	(R4)+,@(R0)+
007510: 032440              		BIT	(R4)+,-(R0)
007512: 032450              		BIT	(R4)+,@-(R0)
007514: 032460 032470       		BIT	(R4)+,32470(R0)
007520: 032500              		BIT	(R5)+,R0
007522: 032510              		BIT	(R5)+,(R0)
007524: 032520              		BIT	(R5)+,(R0)+
007526: 032530              		BIT	(R5)+,@(R0)+
007530: 032540              		BIT	(R5)+,-(R0)
007532: 032550              		BIT	(R5)+,@-(R0)
007534: 032560 032570       		BIT	(R5)+,32570(R0)
007540: 032600              		BIT	(SP)+,R0
007542: 032610              		BIT	(SP)+,(R0)
007544: 032620              		BIT	(SP)+,(R0)+
007546: 032630              		BIT	(SP)+,@(R0)+
007550: 032640              		BIT	(SP)+,-(R0)
007552: 032650              		BIT	(SP)+,@-(R0)
007554: 032660 032670       		BIT	(SP)+,32670(R0)
007560: 032700 032710       		BIT	#32710,R0
007564: 032720 032730       		BIT	#32730,(R0)+
007570: 032740 032750       		BIT	#32750,-(R0)
007574: 032760 032770 033000		BIT	#32770,33000(R0)
007602: 033010              		BIT	@(R0)+,(R0)
007604: 033020              		BIT	@(R0)+,(R0)+
007606: 033030              		BIT	@(R0)+,@(R0)+
007610: 033040              		BIT	@(R0)+,-(R0)
007612: 033050              		BIT	@(R0)+,@-(R0)
007614: 033060 033070       		BIT	@(R0)+,33070(R0)
007620: 033100              		BIT	@(R1)+,R0
007622: 033110              		BIT	@(R1)+,(R0)
007624: 033120              		BIT	@(R1)+,(R0)+
007626: 033130              		BIT	@(R1)+,@(R0)+
007630: 033140              		BIT	@(R1)+,-(R0)
007632: 033150              		BIT	@(R1)+,@-(R0)
007634: 033160 033170       		BIT	@(R1)+,33170(R0)
007640: 033200              		BIT	@(R2)+,R0
007642: 033210              		BIT	@(R2)+,(R0)
007644: 033220              		BIT	@(R2)+,(R0)+
007646: 033230              		BIT	@(R2)+,@(R0)+
007650: 033240              		BIT	@(R2)+,-(R0)
007652: 033250              		BIT	@(R2)+,@-(R0)
007654: 033260 033270       		BIT	@(R2)+,33270(R0)
007660: 033300              		BIT	@(R3)+,R0
007662: 033310              		BIT	@(R3)+,(R0)
007664: 033320              		BIT	@(R3)+,(R0)+
007666: 033330              		BIT	@(R3)+,@(R0)+
007670: 033340              		BIT	@(R3)+,-(R0)
007672: 033350              		BIT	@(R3)+,@-(R0)
007674: 033360 033370       		BIT	@(R3)+,33370(R0)
007700: 033400              		BIT	@(R4)+,R0
007702: 033410              		BIT	@(R4)+,(R0)
007704: 033420              		BIT	@(R4)+,(R0)+
007706: 033430              		BIT	@(R4)+,@(R0)+
007710: 033440              		BIT	@(R4)+,-(R0)
007712: 033450              		BIT	@(R4)+,@-(R0)
007714: 033460 033470       		BIT	@(R4)+,33470(R0)
007720: 033500              		BIT	@(R5)+,R0
007722: 033510              		BIT	@(R5)+,(R0)
007724: 033520              		BIT	@(R5)+,(R0)+
007726: 033530              		BIT	@(R5)+,@(R0)+
007730: 033540              		BIT	@(R5)+,-(R0)
007732: 033550              		BIT	@(R5)+,@-(R0)
007734: 033560 033570       		BIT	@(R5)+,33570(R0)
007740: 033600              		BIT	@(SP)+,R0
007742: 033610              		BIT	@(SP)+,(R0)
007744: 033620              		BIT	@(SP)+,(R0)+
007746: 033630              		BIT	@(SP)+,@(R0)+
007750: 033640              		BIT	@(SP)+,-(R0)
007752: 033650              		BIT	@(SP)+,@-(R0)
007754: 033660 033670       		BIT	@(SP)+,33670(R0)
007760: 033700 033710       		BIT	@#L234,R0
007764: 033720 033730       		BIT	@#L235,(R0)+
007770: 033740 033750       		BIT	@#L236,-(R0)
007774: 033760 033770 034000		BIT	@#L237,34000(R0)
010002: 034010              		BIT	-(R0),(R0)
010004: 034020              		BIT	-(R0),(R0)+
010006: 034030              		BIT	-(R0),@(R0)+
010010: 034040              		BIT	-(R0),-(R0)
010012: 034050              		BIT	-(R0),@-(R0)
010014: 034060 034070       		BIT	-(R0),34070(R0)
010020: 034100              		BIT	-(R1),R0
010022: 034110              		BIT	-(R1),(R0)
010024: 034120              		BIT	-(R1),(R0)+
010026: 034130              		BIT	-(R1),@(R0)+
010030: 034140              		BIT	-(R1),-(R0)
010032: 034150              		BIT	-(R1),@-(R0)
010034: 034160 034170       		BIT	-(R1),34170(R0)
010040: 034200              		BIT	-(R2),R0
010042: 034210              		BIT	-(R2),(R0)
010044: 034220              		BIT	-(R2),(R0)+
010046: 034230              		BIT	-(R2),@(R0)+
010050: 034240              		BIT	-(R2),-(R0)
010052: 034250              		BIT	-(R2),@-(R0)
010054: 034260 034270       		BIT	-(R2),34270(R0)
010060: 034300              		BIT	-(R3),R0
010062: 034310              		BIT	-(R3),(R0)
010064: 034320              		BIT	-(R3),(R0)+
010066: 034330              		BIT	-(R3),@(R0)+
010070: 034340              		BIT	-(R3),-(R0)
010072: 034350              		BIT	-(R3),@-(R0)
010074: 034360 034370       		BIT	-(R3),34370(R0)
010100: 034400              		BIT	-(R4),R0
010102: 034410              		BIT	-(R4),(R0)
010104: 034420              		BIT	-(R4),(R0)+
010106: 034430              		BIT	-(R4),@(R0)+
010110: 034440              		BIT	-(R4),-(R0)
010112: 034450              		BIT	-(R4),@-(R0)
010114: 034460 034470       		BIT	-(R4),34470(R0)
010120: 034500              		BIT	-(R5),R0
010122: 034510              		BIT	-(R5),(R0)
010124: 034520              		BIT	-(R5),(R0)+
010126: 034530              		BIT	-(R5),@(R0)+
010130: 034540              		BIT	-(R5),-(R0)
010132: 034550              		BIT	-(R5),@-(R0)
010134: 034560 034570       		BIT	-(R5),34570(R0)
010140: 034600              		BIT	-(SP),R0
010142: 034610              		BIT	-(SP),(R0)
010144: 034620              		BIT	-(SP),(R0)+
010146: 034630              		BIT	-(SP),@(R0)+
010150: 034640              		BIT	-(SP),-(R0)
010152: 034650              		BIT	-(SP),@-(R0)
010154: 034660 034670       		BIT	-(SP),34670(R0)
010160: 034700              		BIT	-(PC),R0
010162: 034710              		BIT	-(PC),(R0)
010164: 034720              		BIT	-(PC),(R0)+
010166: 034730              		BIT	-(PC),@(R0)+
010170: 034740              		BIT	-(PC),-(R0)
010172: 034750              		BIT	-(PC),@-(R0)
010174: 034760 034770       		BIT	-(PC),34770(R0)
010200: 035000              		BIT	@-(R0),R0
010202: 035010              		BIT	@-(R0),(R0)
010204: 035020              		BIT	@-(R0),(R0)+
010206: 035030              		BIT	@-(R0),@(R0)+
010210: 035040              		BIT	@-(R0),-(R0)
010212: 035050              		BIT	@-(R0),@-(R0)
010214: 035060 035070       		BIT	@-(R0),35070(R0)
010220: 035100              		BIT	@-(R1),R0
010222: 035110              		BIT	@-(R1),(R0)
010224: 035120              		BIT	@-(R1),(R0)+
010226: 035130              		BIT	@-(R1),@(R0)+
010230: 035140              		BIT	@-(R1),-(R0)
010232: 035150              		BIT	@-(R1),@-(R0)
010234: 035160 035170       		BIT	@-(R1),35170(R0)
010240: 035200              		BIT	@-(R2),R0
010242: 035210              		BIT	@-(R2),(R0)
010244: 035220              		BIT	@-(R2),(R0)+
010246: 035230              		BIT	@-(R2),@(R0)+
010250: 035240              		BIT	@-(R2),-(R0)
010252: 035250              		BIT	@-(R2),@-(R0)
010254: 035260 035270       		BIT	@-(R2),35270(R0)
010260: 035300              		BIT	@-(R3),R0
010262: 035310              		BIT	@-(R3),(R0)
010264: 035320              		BIT	@-(R3),(R0)+
010266: 035330              		BIT	@-(R3),@(R0)+
010270: 035340              		BIT	@-(R3),-(R0)
010272: 035350              		BIT	@-(R3),@-(R0)
010274: 035360 035370       		BIT	@-(R3),35370(R0)
010300: 035400              		BIT	@-(R4),R0
010302: 035410              		BIT	@-(R4),(R0)
010304: 035420              		BIT	@-(R4),(R0)+
010306: 035430              		BIT	@-(R4),@(R0)+
010310: 035440              		BIT	@-(R4),-(R0)
010312: 035450              		BIT	@-(R4),@-(R0)
010314: 035460 035470       		BIT	@-(R4),35470(R0)
010320: 035500              		BIT	@-(R5),R0
010322: 035510              		BIT	@-(R5),(R0)
010324: 035520              		BIT	@-(R5),(R0)+
010326: 035530              		BIT	@-(R5),@(R0)+
010330: 035540              		BIT	@-(R5),-(R0)
010332: 035550              		BIT	@-(R5),@-(R0)
010334: 035560 035570       		BIT	@-(R5),35570(R0)
010340: 035600              		BIT	@-(SP),R0
010342: 035610              		BIT	@-(SP),(R0)
010344: 035620              		BIT	@-(SP),(R0)+
010346: 035630              		BIT	@-(SP),@(R0)+
010350: 035640              		BIT	@-(SP),-(R0)
010352: 035650              		BIT	@-(SP),@-(R0)
010354: 035660 035670       		BIT	@-(SP),35670(R0)
010360: 035700              		BIT	@-(PC),R0
010362: 035710              		BIT	@-(PC),(R0)
010364: 035720              		BIT	@-(PC),(R0)+
010366: 035730              		BIT	@-(PC),@(R0)+
010370: 035740              		BIT	@-(PC),-(R0)
010372: 035750              		BIT	@-(PC),@-(R0)
010374: 035760 035770       		BIT	@-(PC),35770(R0)
010400: 036000 036010       		BIT	36010(R0),R0
010404: 036020 036030       		BIT	36030(R0),(R0)+
010410: 036040 036050       		BIT	36050(R0),-(R0)
010414: 036060 036070 036100		BIT	36070(R0),36100(R0)
010422: 036110 036120       		BIT	36120(R1),(R0)
010426: 036130 036140       		BIT	36140(R1),@(R0)+
010432: 036150 036160       		BIT	36160(R1),@-(R0)
010436: 036170 036200 036210		BIT	36200(R1),@36210(R0)
010444: 036220 036230       		BIT	36230(R2),(R0)+
010450: 036240 036250       		BIT	36250(R2),-(R0)
010454: 036260 036270 036300		BIT	36270(R2),36300(R0)
010462: 036310 036320       		BIT	36320(R3),(R0)
010466: 036330 036340       		BIT	36340(R3),@(R0)+
010472: 036350 036360       		BIT	36360(R3),@-(R0)
010476: 036370 036400 036410		BIT	36400(R3),@36410(R0)
010504: 036420 036430       		BIT	36430(R4),(R0)+
010510: 036440 036450       		BIT	36450(R4),-(R0)
010514: 036460 036470 036500		BIT	36470(R4),36500(R0)
010522: 036510 036520       		BIT	36520(R5),(R0)
010526: 036530 036540       		BIT	36540(R5),@(R0)+
010532: 036550 036560       		BIT	36560(R5),@-(R0)
010536: 036570 036600 036610		BIT	36600(R5),@36610(R0)
010544: 036620 036630       		BIT	36630(SP),(R0)+
010550: 036640 036650       		BIT	36650(SP),-(R0)
010554: 036660 036670 036700		BIT	36670(SP),36700(R0)
010562: 036710 036720       		BIT	47506,(R0)
010566: 036730 036740       		BIT	47532,@(R0)+
010572: 036750 036760       		BIT	47556,@-(R0)
010576: 036770 037000 037010		BIT	47602,@37010(R0)
010604: 037020 037030       		BIT	@37030(R0),(R0)+
010610: 037040 037050       		BIT	@37050(R0),-(R0)
010614: 037060 037070 037100		BIT	@37070(R0),37100(R0)
010622: 037110 037120       		BIT	@37120(R1),(R0)
010626: 037130 037140       		BIT	@37140(R1),@(R0)+
010632: 037150 037160       		BIT	@37160(R1),@-(R0)
010636: 037170 037200 037210		BIT	@37200(R1),@37210(R0)
010644: 037220 037230       		BIT	@37230(R2),(R0)+
010650: 037240 037250       		BIT	@37250(R2),-(R0)
010654: 037260 037270 037300		BIT	@37270(R2),37300(R0)
010662: 037310 037320       		BIT	@37320(R3),(R0)
010666: 037330 037340       		BIT	@37340(R3),@(R0)+
010672: 037350 037360       		BIT	@37360(R3),@-(R0)
010676: 037370 037400 037410		BIT	@37400(R3),@37410(R0)
010704: 037420 037430       		BIT	@37430(R4),(R0)+
010710: 037440 037450       		BIT	@37450(R4),-(R0)
010714: 037460 037470 037500		BIT	@37470(R4),37500(R0)
010722: 037510 037520       		BIT	@37520(R5),(R0)
010726: 037530 037540       		BIT	@37540(R5),@(R0)+
010732: 037550 037560       		BIT	@37560(R5),@-(R0)
010736: 037570 037600 037610		BIT	@37600(R5),@37610(R0)
010744: 037620 037630       		BIT	@37630(SP),(R0)+
010750: 037640 037650       		BIT	@37650(SP),-(R0)
010754: 037660 037670 037700		BIT	@37670(SP),37700(R0)
010762: 037710 037720       		BIT	@50706,(R0)
010766: 037730 037740       		BIT	@50732,@(R0)+
010772: 037750 037760       		BIT	@50756,@-(R0)
010776: 037770 040000 040010		BIT	@51002,@40010(R0)
011004: 040020              		BIC	R0,(R0)+
011006: 040030              		BIC	R0,@(R0)+
011010: 040040              		BIC	R0,-(R0)
011012: 040050              		BIC	R0,@-(R0)
011014: 040060 040070       		BIC	R0,40070(R0)
011020: 040100              		BIC	R1,R0
011022: 040110              		BIC	R1,(R0)
011024: 040120              		BIC	R1,(R0)+
011026: 040130              		BIC	R1,@(R0)+
011030: 040140              		BIC	R1,-(R0)
011032: 040150              		BIC	R1,@-(R0)
011034: 040160 040170       		BIC	R1,40170(R0)
011040: 040200              		BIC	R2,R0
011042: 040210              		BIC	R2,(R0)
011044: 040220              		BIC	R2,(R0)+
011046: 040230              		BIC	R2,@(R0)+
011050: 040240              		BIC	R2,-(R0)
011052: 040250              		BIC	R2,@-(R0)
011054: 040260 040270       		BIC	R2,40270(R0)
011060: 040300              		BIC	R3,R0
011062: 040310              		BIC	R3,(R0)
011064: 040320              		BIC	R3,(R0)+
011066: 040330              		BIC	R3,@(R0)+
011070: 040340              		BIC	R3,-(R0)
011072: 040350              		BIC	R3,@-(R0)
011074: 040360 040370       		BIC	R3,40370(R0)
011100: 040400              		BIC	R4,R0
011102: 040410              		BIC	R4,(R0)
011104: 040420              		BIC	R4,(R0)+
011106: 040430              		BIC	R4,@(R0)+
011110: 040440              		BIC	R4,-(R0)
011112: 040450              		BIC	R4,@-(R0)
011114: 040460 040470       		BIC	R4,40470(R0)
011120: 040500              		BIC	R5,R0
011122: 040510              		BIC	R5,(R0)
011124: 040520              		BIC	R5,(R0)+
011126: 040530              		BIC	R5,@(R0)+
011130: 040540              		BIC	R5,-(R0)
011132: 040550              		BIC	R5,@-(R0)
011134: 040560 040570       		BIC	R5,40570(R0)
011140: 040600              		BIC	SP,R0
011142: 040610              		BIC	SP,(R0)
011144: 040620              		BIC	SP,(R0)+
011146: 040630              		BIC	SP,@(R0)+
011150: 040640              		BIC	SP,-(R0)
011152: 040650              		BIC	SP,@-(R0)
011154: 040660 040670       		BIC	SP,40670(R0)
011160: 040700              		BIC	PC,R0
011162: 040710              		BIC	PC,(R0)
011164: 040720              		BIC	PC,(R0)+
011166: 040730              		BIC	PC,@(R0)+
011170: 040740              		BIC	PC,-(R0)
011172: 040750              		BIC	PC,@-(R0)
011174: 040760 040770       		BIC	PC,40770(R0)
011200: 041000              		BIC	(R0),R0
011202: 041010              		BIC	(R0),(R0)
011204: 041020              		BIC	(R0),(R0)+
011206: 041030              		BIC	(R0),@(R0)+
011210: 041040              		BIC	(R0),-(R0)
011212: 041050              		BIC	(R0),@-(R0)
011214: 041060 041070       		BIC	(R0),41070(R0)
011220: 041100              		BIC	(R1),R0
011222: 041110              		BIC	(R1),(R0)
011224: 041120              		BIC	(R1),(R0)+
011226: 041130              		BIC	(R1),@(R0)+
011230: 041140              		BIC	(R1),-(R0)
011232: 041150              		BIC	(R1),@-(R0)
011234: 041160 041170       		BIC	(R1),41170(R0)
011240: 041200              		BIC	(R2),R0
011242: 041210              		BIC	(R2),(R0)
011244: 041220              		BIC	(R2),(R0)+
011246: 041230              		BIC	(R2),@(R0)+
011250: 041240              		BIC	(R2),-(R0)
011252: 041250              		BIC	(R2),@-(R0)
011254: 041260 041270       		BIC	(R2),41270(R0)
011260: 041300              		BIC	(R3),R0
011262: 041310              		BIC	(R3),(R0)
011264: 041320              		BIC	(R3),(R0)+
011266: 041330              		BIC	(R3),@(R0)+
011270: 041340              		BIC	(R3),-(R0)
011272: 041350              		BIC	(R3),@-(R0)
011274: 041360 041370       		BIC	(R3),41370(R0)
011300: 041400              		BIC	(R4),R0
011302: 041410              		BIC	(R4),(R0)
011304: 041420              		BIC	(R4),(R0)+
011306: 041430              		BIC	(R4),@(R0)+
011310: 041440              		BIC	(R4),-(R0)
011312: 041450              		BIC	(R4),@-(R0)
011314: 041460 041470       		BIC	(R4),41470(R0)
011320: 041500              		BIC	(R5),R0
011322: 041510              		BIC	(R5),(R0)
011324: 041520              		BIC	(R5),(R0)+
011326: 041530              		BIC	(R5),@(R0)+
011330: 041540              		BIC	(R5),-(R0)
011332: 041550              		BIC	(R5),@-(R0)
011334: 041560 041570       		BIC	(R5),41570(R0)
011340: 041600              		BIC	(SP),R0
011342: 041610              		BIC	(SP),(R0)
011344: 041620              		BIC	(SP),(R0)+
011346: 041630              		BIC	(SP),@(R0)+
011350: 041640              		BIC	(SP),-(R0)
011352: 041650              		BIC	(SP),@-(R0)
011354: 041660 041670       		BIC	(SP),41670(R0)
011360: 041700              		BIC	(PC),R0
011362: 041710              		BIC	(PC),(R0)
011364: 041720              		BIC	(PC),(R0)+
011366: 041730              		BIC	(PC),@(R0)+
011370: 041740              		BIC	(PC),-(R0)
011372: 041750              		BIC	(PC),@-(R0)
011374: 041760 041770       		BIC	(PC),41770(R0)
011400: 042000              		BIC	(R0)+,R0
011402: 042010              		BIC	(R0)+,(R0)
011404: 042020              		BIC	(R0)+,(R0)+
011406: 042030              		BIC	(R0)+,@(R0)+
011410: 042040              		BIC	(R0)+,-(R0)
011412: 042050              		BIC	(R0)+,@-(R0)
011414: 042060 042070       		BIC	(R0)+,42070(R0)
011420: 042100              		BIC	(R1)+,R0
011422: 042110              		BIC	(R1)+,(R0)
011424: 042120              		BIC	(R1)+,(R0)+
011426: 042130              		BIC	(R1)+,@(R0)+
011430: 042140              		BIC	(R1)+,-(R0)
011432: 042150              		BIC	(R1)+,@-(R0)
011434: 042160 042170       		BIC	(R1)+,42170(R0)
011440: 042200              		BIC	(R2)+,R0
011442: 042210              		BIC	(R2)+,(R0)
011444: 042220              		BIC	(R2)+,(R0)+
011446: 042230              		BIC	(R2)+,@(R0)+
011450: 042240              		BIC	(R2)+,-(R0)
011452: 042250              		BIC	(R2)+,@-(R0)
011454: 042260 042270       		BIC	(R2)+,42270(R0)
011460: 042300              		BIC	(R3)+,R0
011462: 042310              		BIC	(R3)+,(R0)
011464: 042320              		BIC	(R3)+,(R0)+
011466: 042330              		BIC	(R3)+,@(R0)+
011470: 042340              		BIC	(R3)+,-(R0)
011472: 042350              		BIC	(R3)+,@-(R0)
011474: 042360 042370       		BIC	(R3)+,42370(R0)
011500: 042400              		BIC	(R4)+,R0
011502: 042410              		BIC	(R4)+,(R0)
011504: 042420              		BIC	(R4)+,(R0)+
011506: 042430              		BIC	(R4)+,@(R0)+
011510: 042440              		BIC	(R4)+,-(R0)
011512: 042450              		BIC	(R4)+,@-(R0)
011514: 042460 042470       		BIC	(R4)+,42470(R0)
011520: 042500              		BIC	(R5)+,R0
011522: 042510              		BIC	(R5)+,(R0)
011524: 042520              		BIC	(R5)+,(R0)+
011526: 042530              		BIC	(R5)+,@(R0)+
011530: 042540              		BIC	(R5)+,-(R0)
011532: 042550              		BIC	(R5)+,@-(R0)
011534: 042560 042570       		BIC	(R5)+,42570(R0)
011540: 042600              		BIC	(SP)+,R0
011542: 042610              		BIC	(SP)+,(R0)
011544: 042620              		BIC	(SP)+,(R0)+
011546: 042630              		BIC	(SP)+,@(R0)+
011550: 042640              		BIC	(SP)+,-(R0)
011552: 042650              		BIC	(SP)+,@-(R0)
011554: 042660 042670       		BIC	(SP)+,42670(R0)
011560: 042700 042710       		BIC	#42710,R0
011564: 042720 042730       		BIC	#42730,(R0)+
011570: 042740 042750       		BIC	#42750,-(R0)
011574: 042760 042770 043000		BIC	#42770,43000(R0)
011602: 043010              		BIC	@(R0)+,(R0)
011604: 043020              		BIC	@(R0)+,(R0)+
011606: 043030              		BIC	@(R0)+,@(R0)+
011610: 043040              		BIC	@(R0)+,-(R0)
011612: 043050              		BIC	@(R0)+,@-(R0)
011614: 043060 043070       		BIC	@(R0)+,43070(R0)
011620: 043100              		BIC	@(R1)+,R0
011622: 043110              		BIC	@(R1)+,(R0)
011624: 043120              		BIC	@(R1)+,(R0)+
011626: 043130              		BIC	@(R1)+,@(R0)+
011630: 043140              		BIC	@(R1)+,-(R0)
011632: 043150              		BIC	@(R1)+,@-(R0)
011634: 043160 043170       		BIC	@(R1)+,43170(R0)
011640: 043200              		BIC	@(R2)+,R0
011642: 043210              		BIC	@(R2)+,(R0)
011644: 043220              		BIC	@(R2)+,(R0)+
011646: 043230              		BIC	@(R2)+,@(R0)+
011650: 043240              		BIC	@(R2)+,-(R0)
011652: 043250              		BIC	@(R2)+,@-(R0)
011654: 043260 043270       		BIC	@(R2)+,43270(R0)
011660: 043300              		BIC	@(R3)+,R0
011662: 043310              		BIC	@(R3)+,(R0)
011664: 043320              		BIC	@(R3)+,(R0)+
011666: 043330              		BIC	@(R3)+,@(R0)+
011670: 043340              		BIC	@(R3)+,-(R0)
011672: 043350              		BIC	@(R3)+,@-(R0)
011674: 043360 043370       		BIC	@(R3)+,43370(R0)
011700: 043400              		BIC	@(R4)+,R0
011702: 043410              		BIC	@(R4)+,(R0)
011704: 043420              		BIC	@(R4)+,(R0)+
011706: 043430              		BIC	@(R4)+,@(R0)+
011710: 043440              		BIC	@(R4)+,-(R0)
011712: 043450              		BIC	@(R4)+,@-(R0)
011714: 043460 043470       		BIC	@(R4)+,43470(R0)
011720: 043500              		BIC	@(R5)+,R0
011722: 043510              		BIC	@(R5)+,(R0)
011724: 043520              		BIC	@(R5)+,(R0)+
011726: 043530              		BIC	@(R5)+,@(R0)+
011730: 043540              		BIC	@(R5)+,-(R0)
011732: 043550              		BIC	@(R5)+,@-(R0)
011734: 043560 043570       		BIC	@(R5)+,43570(R0)
011740: 043600              		BIC	@(SP)+,R0
011742: 043610              		BIC	@(SP)+,(R0)
011744: 043620              		BIC	@(SP)+,(R0)+
011746: 043630              		BIC	@(SP)+,@(R0)+
011750: 043640              		BIC	@(SP)+,-(R0)
011752: 043650              		BIC	@(SP)+,@-(R0)
011754: 043660 043670       		BIC	@(SP)+,43670(R0)
011760: 043700 043710       		BIC	@#43710,R0
011764: 043720 043730       		BIC	@#43730,(R0)+
011770: 043740 043750       		BIC	@#43750,-(R0)
011774: 043760 043770 044000		BIC	@#43770,44000(R0)
012002: 044010              		BIC	-(R0),(R0)
012004: 044020              		BIC	-(R0),(R0)+
012006: 044030              		BIC	-(R0),@(R0)+
012010: 044040              		BIC	-(R0),-(R0)
012012: 044050              		BIC	-(R0),@-(R0)
012014: 044060 044070       		BIC	-(R0),44070(R0)
012020: 044100              		BIC	-(R1),R0
012022: 044110              		BIC	-(R1),(R0)
012024: 044120              		BIC	-(R1),(R0)+
012026: 044130              		BIC	-(R1),@(R0)+
012030: 044140              		BIC	-(R1),-(R0)
012032: 044150              		BIC	-(R1),@-(R0)
012034: 044160 044170       		BIC	-(R1),44170(R0)
012040: 044200              		BIC	-(R2),R0
012042: 044210              		BIC	-(R2),(R0)
012044: 044220              		BIC	-(R2),(R0)+
012046: 044230              		BIC	-(R2),@(R0)+
012050: 044240              		BIC	-(R2),-(R0)
012052: 044250              		BIC	-(R2),@-(R0)
012054: 044260 044270       		BIC	-(R2),44270(R0)
012060: 044300              		BIC	-(R3),R0
012062: 044310              		BIC	-(R3),(R0)
012064: 044320              		BIC	-(R3),(R0)+
012066: 044330              		BIC	-(R3),@(R0)+
012070: 044340              		BIC	-(R3),-(R0)
012072: 044350              		BIC	-(R3),@-(R0)
012074: 044360 044370       		BIC	-(R3),44370(R0)
012100: 044400              		BIC	-(R4),R0
012102: 044410              		BIC	-(R4),(R0)
012104: 044420              		BIC	-(R4),(R0)+
012106: 044430              		BIC	-(R4),@(R0)+
012110: 044440              		BIC	-(R4),-(R0)
012112: 044450              		BIC	-(R4),@-(R0)
012114: 044460 044470       		BIC	-(R4),44470(R0)
012120: 044500              		BIC	-(R5),R0
012122: 044510              		BIC	-(R5),(R0)
012124: 044520              		BIC	-(R5),(R0)+
012126: 044530              		BIC	-(R5),@(R0)+
012130: 044540              		BIC	-(R5),-(R0)
012132: 044550              		BIC	-(R5),@-(R0)
012134: 044560 044570       		BIC	-(R5),44570(R0)
012140: 044600              		BIC	-(SP),R0
012142: 044610              		BIC	-(SP),(R0)
012144: 044620              		BIC	-(SP),(R0)+
012146: 044630              		BIC	-(SP),@(R0)+
012150: 044640              		BIC	-(SP),-(R0)
012152: 044650              		BIC	-(SP),@-(R0)
012154: 044660 044670       		BIC	-(SP),44670(R0)
012160: 044700              		BIC	-(PC),R0
012162: 044710              		BIC	-(PC),(R0)
012164: 044720              		BIC	-(PC),(R0)+
012166: 044730              		BIC	-(PC),@(R0)+
012170: 044740              		BIC	-(PC),-(R0)
012172: 044750              		BIC	-(PC),@-(R0)
012174: 044760 044770       		BIC	-(PC),44770(R0)
012200: 045000              		BIC	@-(R0),R0
012202: 045010              		BIC	@-(R0),(R0)
012204: 045020              		BIC	@-(R0),(R0)+
012206: 045030              		BIC	@-(R0),@(R0)+
012210: 045040              		BIC	@-(R0),-(R0)
012212: 045050              		BIC	@-(R0),@-(R0)
012214: 045060 045070       		BIC	@-(R0),45070(R0)
012220: 045100              		BIC	@-(R1),R0
012222: 045110              		BIC	@-(R1),(R0)
012224: 045120              		BIC	@-(R1),(R0)+
012226: 045130              		BIC	@-(R1),@(R0)+
012230: 045140              		BIC	@-(R1),-(R0)
012232: 045150              		BIC	@-(R1),@-(R0)
012234: 045160 045170       		BIC	@-(R1),45170(R0)
012240: 045200              		BIC	@-(R2),R0
012242: 045210              		BIC	@-(R2),(R0)
012244: 045220              		BIC	@-(R2),(R0)+
012246: 045230              		BIC	@-(R2),@(R0)+
012250: 045240              		BIC	@-(R2),-(R0)
012252: 045250              		BIC	@-(R2),@-(R0)
012254: 045260 045270       		BIC	@-(R2),45270(R0)
012260: 045300              		BIC	@-(R3),R0
012262: 045310              		BIC	@-(R3),(R0)
012264: 045320              		BIC	@-(R3),(R0)+
012266: 045330              		BIC	@-(R3),@(R0)+
012270: 045340              		BIC	@-(R3),-(R0)
012272: 045350              		BIC	@-(R3),@-(R0)
012274: 045360 045370       		BIC	@-(R3),45370(R0)
012300: 045400              		BIC	@-(R4),R0
012302: 045410              		BIC	@-(R4),(R0)
012304: 045420              		BIC	@-(R4),(R0)+
012306: 045430              		BIC	@-(R4),@(R0)+
012310: 045440              		BIC	@-(R4),-(R0)
012312: 045450              		BIC	@-(R4),@-(R0)
012314: 045460 045470       		BIC	@-(R4),45470(R0)
012320: 045500              		BIC	@-(R5),R0
012322: 045510              		BIC	@-(R5),(R0)
012324: 045520              		BIC	@-(R5),(R0)+
012326: 045530              		BIC	@-(R5),@(R0)+
012330: 045540              		BIC	@-(R5),-(R0)
012332: 045550              		BIC	@-(R5),@-(R0)
012334: 045560 045570       		BIC	@-(R5),45570(R0)
012340: 045600              		BIC	@-(SP),R0
012342: 045610              		BIC	@-(SP),(R0)
012344: 045620              		BIC	@-(SP),(R0)+
012346: 045630              		BIC	@-(SP),@(R0)+
012350: 045640              		BIC	@-(SP),-(R0)
012352: 045650              		BIC	@-(SP),@-(R0)
012354: 045660 045670       		BIC	@-(SP),45670(R0)
012360: 045700              		BIC	@-(PC),R0
012362: 045710              		BIC	@-(PC),(R0)
012364: 045720              		BIC	@-(PC),(R0)+
012366: 045730              		BIC	@-(PC),@(R0)+
012370: 045740              		BIC	@-(PC),-(R0)
012372: 045750              		BIC	@-(PC),@-(R0)
012374: 045760 045770       		BIC	@-(PC),45770(R0)
012400: 046000 046010       		BIC	46010(R0),R0
012404: 046020 046030       		BIC	46030(R0),(R0)+
012410: 046040 046050       		BIC	46050(R0),-(R0)
012414: 046060 046070 046100		BIC	46070(R0),46100(R0)
012422: 046110 046120       		BIC	46120(R1),(R0)
012426: 046130 046140       		BIC	46140(R1),@(R0)+
012432: 046150 046160       		BIC	46160(R1),@-(R0)
012436: 046170 046200 046210		BIC	46200(R1),@46210(R0)
012444: 046220 046230       		BIC	46230(R2),(R0)+
012450: 046240 046250       		BIC	46250(R2),-(R0)
012454: 046260 046270 046300		BIC	46270(R2),46300(R0)
012462: 046310 046320       		BIC	46320(R3),(R0)
012466: 046330 046340       		BIC	46340(R3),@(R0)+
012472: 046350 046360       		BIC	46360(R3),@-(R0)
012476: 046370 046400 046410		BIC	46400(R3),@46410(R0)
012504: 046420 046430       		BIC	46430(R4),(R0)+
012510: 046440 046450       		BIC	46450(R4),-(R0)
012514: 046460 046470 046500		BIC	46470(R4),46500(R0)
012522: 046510 046520       		BIC	46520(R5),(R0)
012526: 046530 046540       		BIC	46540(R5),@(R0)+
012532: 046550 046560       		BIC	46560(R5),@-(R0)
012536: 046570 046600 046610		BIC	46600(R5),@46610(R0)
012544: 046620 046630       		BIC	46630(SP),(R0)+
012550: 046640 046650       		BIC	46650(SP),-(R0)
012554: 046660 046670 046700		BIC	46670(SP),46700(R0)
012562: 046710 046720       		BIC	61506,(R0)
012566: 046730 046740       		BIC	61532,@(R0)+
012572: 046750 046760       		BIC	61556,@-(R0)
012576: 046770 047000 047010		BIC	61602,@47010(R0)
012604: 047020 047030       		BIC	@47030(R0),(R0)+
012610: 047040 047050       		BIC	@47050(R0),-(R0)
012614: 047060 047070 047100		BIC	@47070(R0),47100(R0)
012622: 047110 047120       		BIC	@47120(R1),(R0)
012626: 047130 047140       		BIC	@47140(R1),@(R0)+
012632: 047150 047160       		BIC	@47160(R1),@-(R0)
012636: 047170 047200 047210		BIC	@47200(R1),@47210(R0)
012644: 047220 047230       		BIC	@47230(R2),(R0)+
012650: 047240 047250       		BIC	@47250(R2),-(R0)
012654: 047260 047270 047300		BIC	@47270(R2),47300(R0)
012662: 047310 047320       		BIC	@47320(R3),(R0)
012666: 047330 047340       		BIC	@47340(R3),@(R0)+
012672: 047350 047360       		BIC	@47360(R3),@-(R0)
012676: 047370 047400 047410		BIC	@47400(R3),@47410(R0)
012704: 047420 047430       		BIC	@47430(R4),(R0)+
012710: 047440 047450       		BIC	@47450(R4),-(R0)
012714: 047460 047470 047500		BIC	@47470(R4),47500(R0)
012722: 047510 047520       		BIC	@47520(R5),(R0)
012726: 047530 047540       		BIC	@47540(R5),@(R0)+
012732: 047550 047560       		BIC	@47560(R5),@-(R0)
012736: 047570 047600 047610		BIC	@47600(R5),@47610(R0)
012744: 047620 047630       		BIC	@47630(SP),(R0)+
012750: 047640 047650       		BIC	@47650(SP),-(R0)
012754: 047660 047670 047700		BIC	@47670(SP),47700(R0)
012762: 047710 047720       		BIC	@62706,(R0)
012766: 047730 047740       		BIC	@62732,@(R0)+
012772: 047750 047760       		BIC	@62756,@-(R0)
012776: 047770 050000 050010		BIC	@63002,@50010(R0)
013004: 050020              		BIS	R0,(R0)+
013006: 050030              		BIS	R0,@(R0)+
013010: 050040              		BIS	R0,-(R0)
013012: 050050              		BIS	R0,@-(R0)
013014: 050060 050070       		BIS	R0,50070(R0)
013020: 050100              		BIS	R1,R0
013022: 050110              		BIS	R1,(R0)
013024: 050120              		BIS	R1,(R0)+
013026: 050130              		BIS	R1,@(R0)+
013030: 050140              		BIS	R1,-(R0)
013032: 050150              		BIS	R1,@-(R0)
013034: 050160 050170       		BIS	R1,50170(R0)
013040: 050200              		BIS	R2,R0
013042: 050210              		BIS	R2,(R0)
013044: 050220              		BIS	R2,(R0)+
013046: 050230              		BIS	R2,@(R0)+
013050: 050240              		BIS	R2,-(R0)
013052: 050250              		BIS	R2,@-(R0)
013054: 050260 050270       		BIS	R2,50270(R0)
013060: 050300              		BIS	R3,R0
013062: 050310              		BIS	R3,(R0)
013064: 050320              		BIS	R3,(R0)+
013066: 050330              		BIS	R3,@(R0)+
013070: 050340              		BIS	R3,-(R0)
013072: 050350              		BIS	R3,@-(R0)
013074: 050360 050370       		BIS	R3,50370(R0)
013100: 050400              		BIS	R4,R0
013102: 050410              		BIS	R4,(R0)
013104: 050420              		BIS	R4,(R0)+
013106: 050430              		BIS	R4,@(R0)+
013110: 050440              		BIS	R4,-(R0)
013112: 050450              		BIS	R4,@-(R0)
013114: 050460 050470       		BIS	R4,50470(R0)
013120: 050500              		BIS	R5,R0
013122: 050510              		BIS	R5,(R0)
013124: 050520              		BIS	R5,(R0)+
013126: 050530              		BIS	R5,@(R0)+
013130: 050540              		BIS	R5,-(R0)
013132: 050550              		BIS	R5,@-(R0)
013134: 050560 050570       		BIS	R5,50570(R0)
013140: 050600              		BIS	SP,R0
013142: 050610              		BIS	SP,(R0)
013144: 050620              		BIS	SP,(R0)+
013146: 050630              		BIS	SP,@(R0)+
013150: 050640              		BIS	SP,-(R0)
013152: 050650              		BIS	SP,@-(R0)
013154: 050660 050670       		BIS	SP,50670(R0)
013160: 050700              		BIS	PC,R0
013162: 050710              		BIS	PC,(R0)
013164: 050720              		BIS	PC,(R0)+
013166: 050730              		BIS	PC,@(R0)+
013170: 050740              		BIS	PC,-(R0)
013172: 050750              		BIS	PC,@-(R0)
013174: 050760 050770       		BIS	PC,50770(R0)
013200: 051000              		BIS	(R0),R0
013202: 051010              		BIS	(R0),(R0)
013204: 051020              		BIS	(R0),(R0)+
013206: 051030              		BIS	(R0),@(R0)+
013210: 051040              		BIS	(R0),-(R0)
013212: 051050              		BIS	(R0),@-(R0)
013214: 051060 051070       		BIS	(R0),51070(R0)
013220: 051100              		BIS	(R1),R0
013222: 051110              		BIS	(R1),(R0)
013224: 051120              		BIS	(R1),(R0)+
013226: 051130              		BIS	(R1),@(R0)+
013230: 051140              		BIS	(R1),-(R0)
013232: 051150              		BIS	(R1),@-(R0)
013234: 051160 051170       		BIS	(R1),51170(R0)
013240: 051200              		BIS	(R2),R0
013242: 051210              		BIS	(R2),(R0)
013244: 051220              		BIS	(R2),(R0)+
013246: 051230              		BIS	(R2),@(R0)+
013250: 051240              		BIS	(R2),-(R0)
013252: 051250              		BIS	(R2),@-(R0)
013254: 051260 051270       		BIS	(R2),51270(R0)
013260: 051300              		BIS	(R3),R0
013262: 051310              		BIS	(R3),(R0)
013264: 051320              		BIS	(R3),(R0)+
013266: 051330              		BIS	(R3),@(R0)+
013270: 051340              		BIS	(R3),-(R0)
013272: 051350              		BIS	(R3),@-(R0)
013274: 051360 051370       		BIS	(R3),51370(R0)
013300: 051400              		BIS	(R4),R0
013302: 051410              		BIS	(R4),(R0)
013304: 051420              		BIS	(R4),(R0)+
013306: 051430              		BIS	(R4),@(R0)+
013310: 051440              		BIS	(R4),-(R0)
013312: 051450              		BIS	(R4),@-(R0)
013314: 051460 051470       		BIS	(R4),51470(R0)
013320: 051500              		BIS	(R5),R0
013322: 051510              		BIS	(R5),(R0)
013324: 051520              		BIS	(R5),(R0)+
013326: 051530              		BIS	(R5),@(R0)+
013330: 051540              		BIS	(R5),-(R0)
013332: 051550              		BIS	(R5),@-(R0)
013334: 051560 051570       		BIS	(R5),51570(R0)
013340: 051600              		BIS	(SP),R0
013342: 051610              		BIS	(SP),(R0)
013344: 051620              		BIS	(SP),(R0)+
013346: 051630              		BIS	(SP),@(R0)+
013350: 051640              		BIS	(SP),-(R0)
013352: 051650              		BIS	(SP),@-(R0)
013354: 051660 051670       		BIS	(SP),51670(R0)
013360: 051700              		BIS	(PC),R0
013362: 051710              		BIS	(PC),(R0)
013364: 051720              		BIS	(PC),(R0)+
013366: 051730              		BIS	(PC),@(R0)+
013370: 051740              		BIS	(PC),-(R0)
013372: 051750              		BIS	(PC),@-(R0)
013374: 051760 051770       		BIS	(PC),51770(R0)
013400: 052000              		BIS	(R0)+,R0
013402: 052010              		BIS	(R0)+,(R0)
013404: 052020              		BIS	(R0)+,(R0)+
013406: 052030              		BIS	(R0)+,@(R0)+
013410: 052040              		BIS	(R0)+,-(R0)
013412: 052050              		BIS	(R0)+,@-(R0)
013414: 052060 052070       		BIS	(R0)+,52070(R0)
013420: 052100              		BIS	(R1)+,R0
013422: 052110              		BIS	(R1)+,(R0)
013424: 052120              		BIS	(R1)+,(R0)+
013426: 052130              		BIS	(R1)+,@(R0)+
013430: 052140              		BIS	(R1)+,-(R0)
013432: 052150              		BIS	(R1)+,@-(R0)
013434: 052160 052170       		BIS	(R1)+,52170(R0)
013440: 052200              		BIS	(R2)+,R0
013442: 052210              		BIS	(R2)+,(R0)
013444: 052220              		BIS	(R2)+,(R0)+
013446: 052230              		BIS	(R2)+,@(R0)+
013450: 052240              		BIS	(R2)+,-(R0)
013452: 052250              		BIS	(R2)+,@-(R0)
013454: 052260 052270       		BIS	(R2)+,52270(R0)
013460: 052300              		BIS	(R3)+,R0
013462: 052310              		BIS	(R3)+,(R0)
013464: 052320              		BIS	(R3)+,(R0)+
013466: 052330              		BIS	(R3)+,@(R0)+
013470: 052340              		BIS	(R3)+,-(R0)
013472: 052350              		BIS	(R3)+,@-(R0)
013474: 052360 052370       		BIS	(R3)+,52370(R0)
013500: 052400              		BIS	(R4)+,R0
013502: 052410              		BIS	(R4)+,(R0)
013504: 052420              		BIS	(R4)+,(R0)+
013506: 052430              	L549:	BIS	(R4)+,@(R0)+
013510: 052440              		BIS	(R4)+,-(R0)
013512: 052450              		BIS	(R4)+,@-(R0)
013514: 052460 052470       		BIS	(R4)+,52470(R0)
013520: 052500              		BIS	(R5)+,R0
013522: 052510              		BIS	(R5)+,(R0)
013524: 052520              		BIS	(R5)+,(R0)+
013526: 052530              		BIS	(R5)+,@(R0)+
013530: 052540              		BIS	(R5)+,-(R0)
013532: 052550              	L550:	BIS	(R5)+,@-(R0)
013534: 052560 052570       		BIS	(R5)+,52570(R0)
013540: 052600              		BIS	(SP)+,R0
013542: 052610              		BIS	(SP)+,(R0)
013544: 052620              		BIS	(SP)+,(R0)+
013546: 052630              		BIS	(SP)+,@(R0)+
013550: 052640              		BIS	(SP)+,-(R0)
013552: 052650              		BIS	(SP)+,@-(R0)
013554: 052660 052670       	L551:	BIS	(SP)+,52670(R0)
013560: 052700 052710       		BIS	#52710,R0
013564: 052720 052730       		BIS	#52730,(R0)+
013570: 052740 052750       		BIS	#52750,-(R0)
013574: 052760 052770 053000		BIS	#52770,53000(R0)
013602: 053010              	L552:	BIS	@(R0)+,(R0)
013604: 053020              		BIS	@(R0)+,(R0)+
013606: 053030              		BIS	@(R0)+,@(R0)+
013610: 053040              		BIS	@(R0)+,-(R0)
013612: 053050              		BIS	@(R0)+,@-(R0)
013614: 053060 053070       		BIS	@(R0)+,53070(R0)
013620: 053100              		BIS	@(R1)+,R0
013622: 053110              		BIS	@(R1)+,(R0)
013624: 053120              		BIS	@(R1)+,(R0)+
013626: 053130              		BIS	@(R1)+,@(R0)+
013630: 053140              		BIS	@(R1)+,-(R0)
013632: 053150              		BIS	@(R1)+,@-(R0)
013634: 053160 053170       		BIS	@(R1)+,53170(R0)
013640: 053200              		BIS	@(R2)+,R0
013642: 053210              		BIS	@(R2)+,(R0)
013644: 053220              		BIS	@(R2)+,(R0)+
013646: 053230              		BIS	@(R2)+,@(R0)+
013650: 053240              		BIS	@(R2)+,-(R0)
013652: 053250              		BIS	@(R2)+,@-(R0)
013654: 053260 053270       		BIS	@(R2)+,53270(R0)
013660: 053300              		BIS	@(R3)+,R0
013662: 053310              		BIS	@(R3)+,(R0)
013664: 053320              		BIS	@(R3)+,(R0)+
013666: 053330              		BIS	@(R3)+,@(R0)+
013670: 053340              		BIS	@(R3)+,-(R0)
013672: 053350              		BIS	@(R3)+,@-(R0)
013674: 053360 053370       		BIS	@(R3)+,53370(R0)
013700: 053400              		BIS	@(R4)+,R0
013702: 053410              		BIS	@(R4)+,(R0)
013704: 053420              		BIS	@(R4)+,(R0)+
013706: 053430              		BIS	@(R4)+,@(R0)+
013710: 053440              	L210:	BIS	@(R4)+,-(R0)
013712: 053450              		BIS	@(R4)+,@-(R0)
013714: 053460 053470       		BIS	@(R4)+,53470(R0)
013720: 053500              		BIS	@(R5)+,R0
013722: 053510              		BIS	@(R5)+,(R0)
013724: 053520              		BIS	@(R5)+,(R0)+
013726: 053530              		BIS	@(R5)+,@(R0)+
013730: 053540              	L211:	BIS	@(R5)+,-(R0)
013732: 053550              		BIS	@(R5)+,@-(R0)
013734: 053560 053570       		BIS	@(R5)+,53570(R0)
013740: 053600              		BIS	@(SP)+,R0
013742: 053610              		BIS	@(SP)+,(R0)
013744: 053620              		BIS	@(SP)+,(R0)+
013746: 053630              		BIS	@(SP)+,@(R0)+
013750: 053640              	L212:	BIS	@(SP)+,-(R0)
013752: 053650              		BIS	@(SP)+,@-(R0)
013754: 053660 053670       		BIS	@(SP)+,53670(R0)
013760: 053700 053710       		BIS	@#53710,R0
013764: 053720 053730       		BIS	@#53730,(R0)+
013770: 053740 053750       	L213:	BIS	@#53750,-(R0)
013774: 053760 053770 054000		BIS	@#53770,54000(R0)
014002: 054010              		BIS	-(R0),(R0)
014004: 054020              		BIS	-(R0),(R0)+
014006: 054030              		BIS	-(R0),@(R0)+
014010: 054040              		BIS	-(R0),-(R0)
014012: 054050              		BIS	-(R0),@-(R0)
014014: 054060 054070       		BIS	-(R0),54070(R0)
014020: 054100              		BIS	-(R1),R0
014022: 054110              		BIS	-(R1),(R0)
014024: 054120              		BIS	-(R1),(R0)+
014026: 054130              		BIS	-(R1),@(R0)+
014030: 054140              		BIS	-(R1),-(R0)
014032: 054150              		BIS	-(R1),@-(R0)
014034: 054160 054170       		BIS	-(R1),54170(R0)
014040: 054200              		BIS	-(R2),R0
014042: 054210              		BIS	-(R2),(R0)
014044: 054220              		BIS	-(R2),(R0)+
014046: 054230              		BIS	-(R2),@(R0)+
014050: 054240              		BIS	-(R2),-(R0)
014052: 054250              		BIS	-(R2),@-(R0)
014054: 054260 054270       		BIS	-(R2),54270(R0)
014060: 054300              		BIS	-(R3),R0
014062: 054310              		BIS	-(R3),(R0)
014064: 054320              		BIS	-(R3),(R0)+
014066: 054330              		BIS	-(R3),@(R0)+
014070: 054340              		BIS	-(R3),-(R0)
014072: 054350              		BIS	-(R3),@-(R0)
014074: 054360 054370       		BIS	-(R3),54370(R0)
014100: 054400              		BIS	-(R4),R0
014102: 054410              		BIS	-(R4),(R0)
014104: 054420              		BIS	-(R4),(R0)+
014106: 054430              		BIS	-(R4),@(R0)+
014110: 054440              		BIS	-(R4),-(R0)
014112: 054450              		BIS	-(R4),@-(R0)
014114: 054460 054470       		BIS	-(R4),54470(R0)
014120: 054500              		BIS	-(R5),R0
014122: 054510              		BIS	-(R5),(R0)
014124: 054520              		BIS	-(R5),(R0)+
014126: 054530              		BIS	-(R5),@(R0)+
014130: 054540              		BIS	-(R5),-(R0)
014132: 054550              		BIS	-(R5),@-(R0)
014134: 054560 054570       		BIS	-(R5),54570(R0)
014140: 054600              		BIS	-(SP),R0
014142: 054610              		BIS	-(SP),(R0)
014144: 054620              		BIS	-(SP),(R0)+
014146: 054630              		BIS	-(SP),@(R0)+
014150: 054640              		BIS	-(SP),-(R0)
014152: 054650              		BIS	-(SP),@-(R0)
014154: 054660 054670       		BIS	-(SP),54670(R0)
014160: 054700              		BIS	-(PC),R0
014162: 054710              		BIS	-(PC),(R0)
014164: 054720              		BIS	-(PC),(R0)+
014166: 054730              		BIS	-(PC),@(R0)+
014170: 054740              		BIS	-(PC),-(R0)
014172: 054750              		BIS	-(PC),@-(R0)
014174: 054760 054770       		BIS	-(PC),54770(R0)
014200: 055000              		BIS	@-(R0),R0
014202: 055010              		BIS	@-(R0),(R0)
014204: 055020              		BIS	@-(R0),(R0)+
014206: 055030              		BIS	@-(R0),@(R0)+
014210: 055040              		BIS	@-(R0),-(R0)
014212: 055050              		BIS	@-(R0),@-(R0)
014214: 055060 055070       		BIS	@-(R0),55070(R0)
014220: 055100              		BIS	@-(R1),R0
014222: 055110              		BIS	@-(R1),(R0)
014224: 055120              		BIS	@-(R1),(R0)+
014226: 055130              		BIS	@-(R1),@(R0)+
014230: 055140              		BIS	@-(R1),-(R0)
014232: 055150              		BIS	@-(R1),@-(R0)
014234: 055160 055170       		BIS	@-(R1),55170(R0)
014240: 055200              		BIS	@-(R2),R0
014242: 055210              		BIS	@-(R2),(R0)
014244: 055220              		BIS	@-(R2),(R0)+
014246: 055230              		BIS	@-(R2),@(R0)+
014250: 055240              		BIS	@-(R2),-(R0)
014252: 055250              		BIS	@-(R2),@-(R0)
014254: 055260 055270       		BIS	@-(R2),55270(R0)
014260: 055300              		BIS	@-(R3),R0
014262: 055310              		BIS	@-(R3),(R0)
014264: 055320              		BIS	@-(R3),(R0)+
014266: 055330              		BIS	@-(R3),@(R0)+
014270: 055340              		BIS	@-(R3),-(R0)
014272: 055350              		BIS	@-(R3),@-(R0)
014274: 055360 055370       		BIS	@-(R3),55370(R0)
014300: 055400              		BIS	@-(R4),R0
014302: 055410              		BIS	@-(R4),(R0)
014304: 055420              		BIS	@-(R4),(R0)+
014306: 055430              		BIS	@-(R4),@(R0)+
014310: 055440              		BIS	@-(R4),-(R0)
014312: 055450              		BIS	@-(R4),@-(R0)
014314: 055460 055470       		BIS	@-(R4),55470(R0)
014320: 055500              		BIS	@-(R5),R0
014322: 055510              		BIS	@-(R5),(R0)
014324: 055520              		BIS	@-(R5),(R0)+
014326: 055530              		BIS	@-(R5),@(R0)+
014330: 055540              		BIS	@-(R5),-(R0)
014332: 055550              		BIS	@-(R5),@-(R0)
014334: 055560 055570       		BIS	@-(R5),55570(R0)
014340: 055600              		BIS	@-(SP),R0
014342: 055610              		BIS	@-(SP),(R0)
014344: 055620              		BIS	@-(SP),(R0)+
014346: 055630              		BIS	@-(SP),@(R0)+
014350: 055640              		BIS	@-(SP),-(R0)
014352: 055650              		BIS	@-(SP),@-(R0)
014354: 055660 055670       		BIS	@-(SP),55670(R0)
014360: 055700              		BIS	@-(PC),R0
014362: 055710              		BIS	@-(PC),(R0)
014364: 055720              		BIS	@-(PC),(R0)+
014366: 055730              		BIS	@-(PC),@(R0)+
014370: 055740              		BIS	@-(PC),-(R0)
014372: 055750              		BIS	@-(PC),@-(R0)
014374: 055760 055770       		BIS	@-(PC),55770(R0)
014400: 056000 056010       		BIS	56010(R0),R0
014404: 056020 056030       		BIS	56030(R0),(R0)+
014410: 056040 056050       		BIS	56050(R0),-(R0)
014414: 056060 056070 056100		BIS	56070(R0),56100(R0)
014422: 056110 056120       		BIS	56120(R1),(R0)
014426: 056130 056140       		BIS	56140(R1),@(R0)+
014432: 056150 056160       		BIS	56160(R1),@-(R0)
014436: 056170 056200 056210		BIS	56200(R1),@56210(R0)
014444: 056220 056230       		BIS	56230(R2),(R0)+
014450: 056240 056250       		BIS	56250(R2),-(R0)
014454: 056260 056270 056300		BIS	56270(R2),56300(R0)
014462: 056310 056320       		BIS	56320(R3),(R0)
014466: 056330 056340       		BIS	56340(R3),@(R0)+
014472: 056350 056360       		BIS	56360(R3),@-(R0)
014476: 056370 056400 056410		BIS	56400(R3),@56410(R0)
014504: 056420 056430       		BIS	56430(R4),(R0)+
014510: 056440 056450       		BIS	56450(R4),-(R0)
014514: 056460 056470 056500		BIS	56470(R4),56500(R0)
014522: 056510 056520       		BIS	56520(R5),(R0)
014526: 056530 056540       		BIS	56540(R5),@(R0)+
014532: 056550 056560       		BIS	56560(R5),@-(R0)
014536: 056570 056600 056610		BIS	56600(R5),@56610(R0)
014544: 056620 056630       		BIS	56630(SP),(R0)+
014550: 056640 056650       		BIS	56650(SP),-(R0)
014554: 056660 056670 056700		BIS	56670(SP),56700(R0)
014562: 056710 056720       		BIS	73506,(R0)
014566: 056730 056740       		BIS	73532,@(R0)+
014572: 056750 056760       		BIS	73556,@-(R0)
014576: 056770 057000 057010		BIS	73602,@57010(R0)
014604: 057020 057030       		BIS	@57030(R0),(R0)+
014610: 057040 057050       		BIS	@57050(R0),-(R0)
014614: 057060 057070 057100		BIS	@57070(R0),57100(R0)
014622: 057110 057120       		BIS	@57120(R1),(R0)
014626: 057130 057140       		BIS	@57140(R1),@(R0)+
014632: 057150 057160       		BIS	@57160(R1),@-(R0)
014636: 057170 057200 057210		BIS	@57200(R1),@57210(R0)
014644: 057220 057230       		BIS	@57230(R2),(R0)+
014650: 057240 057250       		BIS	@57250(R2),-(R0)
014654: 057260 057270 057300		BIS	@57270(R2),57300(R0)
014662: 057310 057320       		BIS	@57320(R3),(R0)
014666: 057330 057340       		BIS	@57340(R3),@(R0)+
014672: 057350 057360       		BIS	@57360(R3),@-(R0)
014676: 057370 057400 057410		BIS	@57400(R3),@57410(R0)
014704: 057420 057430       	L553:	BIS	@57430(R4),(R0)+
014710: 057440 057450       		BIS	@57450(R4),-(R0)
014714: 057460 057470 057500		BIS	@57470(R4),57500(R0)
014722: 057510 057520       		BIS	@57520(R5),(R0)
014726: 057530 057540       		BIS	@57540(R5),@(R0)+
014732: 057550 057560       	L554:	BIS	@57560(R5),@-(R0)
014736: 057570 057600 057610		BIS	@57600(R5),@57610(R0)
014744: 057620 057630       		BIS	@57630(SP),(R0)+
014750: 057640 057650       		BIS	@57650(SP),-(R0)
014754: 057660 057670 057700	L555:	BIS	@57670(SP),57700(R0)
014762: 057710 057720       		BIS	@74706,(R0)
014766: 057730 057740       		BIS	@74732,@(R0)+
014772: 057750 057760       		BIS	@74756,@-(R0)
014776: 057770 060000 060010	L556:	BIS	@75002,@60010(R0)
015004: 060020              		ADD	R0,(R0)+
015006: 060030              		ADD	R0,@(R0)+
015010: 060040              		ADD	R0,-(R0)
015012: 060050              		ADD	R0,@-(R0)
015014: 060060 060070       		ADD	R0,60070(R0)
015020: 060100              		ADD	R1,R0
015022: 060110              		ADD	R1,(R0)
015024: 060120              		ADD	R1,(R0)+
015026: 060130              		ADD	R1,@(R0)+
015030: 060140              		ADD	R1,-(R0)
015032: 060150              		ADD	R1,@-(R0)
015034: 060160 060170       		ADD	R1,60170(R0)
015040: 060200              		ADD	R2,R0
015042: 060210              		ADD	R2,(R0)
015044: 060220              		ADD	R2,(R0)+
015046: 060230              		ADD	R2,@(R0)+
015050: 060240              		ADD	R2,-(R0)
015052: 060250              		ADD	R2,@-(R0)
015054: 060260 060270       		ADD	R2,60270(R0)
015060: 060300              		ADD	R3,R0
015062: 060310              		ADD	R3,(R0)
015064: 060320              		ADD	R3,(R0)+
015066: 060330              		ADD	R3,@(R0)+
015070: 060340              		ADD	R3,-(R0)
015072: 060350              		ADD	R3,@-(R0)
015074: 060360 060370       		ADD	R3,60370(R0)
015100: 060400              		ADD	R4,R0
015102: 060410              		ADD	R4,(R0)
015104: 060420              		ADD	R4,(R0)+
015106: 060430              		ADD	R4,@(R0)+
015110: 060440              		ADD	R4,-(R0)
015112: 060450              		ADD	R4,@-(R0)
015114: 060460 060470       		ADD	R4,60470(R0)
015120: 060500              		ADD	R5,R0
015122: 060510              		ADD	R5,(R0)
015124: 060520              		ADD	R5,(R0)+
015126: 060530              		ADD	R5,@(R0)+
015130: 060540              		ADD	R5,-(R0)
015132: 060550              		ADD	R5,@-(R0)
015134: 060560 060570       		ADD	R5,60570(R0)
015140: 060600              		ADD	SP,R0
015142: 060610              		ADD	SP,(R0)
015144: 060620              		ADD	SP,(R0)+
015146: 060630              		ADD	SP,@(R0)+
015150: 060640              		ADD	SP,-(R0)
015152: 060650              		ADD	SP,@-(R0)
015154: 060660 060670       		ADD	SP,60670(R0)
015160: 060700              		ADD	PC,R0
015162: 060710              		ADD	PC,(R0)
015164: 060720              		ADD	PC,(R0)+
015166: 060730              		ADD	PC,@(R0)+
015170: 060740              		ADD	PC,-(R0)
015172: 060750              		ADD	PC,@-(R0)
015174: 060760 060770       		ADD	PC,60770(R0)
015200: 061000              		ADD	(R0),R0
015202: 061010              		ADD	(R0),(R0)
015204: 061020              		ADD	(R0),(R0)+
015206: 061030              		ADD	(R0),@(R0)+
015210: 061040              		ADD	(R0),-(R0)
015212: 061050              		ADD	(R0),@-(R0)
015214: 061060 061070       		ADD	(R0),61070(R0)
015220: 061100              		ADD	(R1),R0
015222: 061110              		ADD	(R1),(R0)
015224: 061120              		ADD	(R1),(R0)+
015226: 061130              		ADD	(R1),@(R0)+
015230: 061140              		ADD	(R1),-(R0)
015232: 061150              		ADD	(R1),@-(R0)
015234: 061160 061170       		ADD	(R1),61170(R0)
015240: 061200              		ADD	(R2),R0
015242: 061210              		ADD	(R2),(R0)
015244: 061220              		ADD	(R2),(R0)+
015246: 061230              		ADD	(R2),@(R0)+
015250: 061240              		ADD	(R2),-(R0)
015252: 061250              		ADD	(R2),@-(R0)
015254: 061260 061270       		ADD	(R2),61270(R0)
015260: 061300              		ADD	(R3),R0
015262: 061310              		ADD	(R3),(R0)
015264: 061320              		ADD	(R3),(R0)+
015266: 061330              		ADD	(R3),@(R0)+
015270: 061340              		ADD	(R3),-(R0)
015272: 061350              		ADD	(R3),@-(R0)
015274: 061360 061370       		ADD	(R3),61370(R0)
015300: 061400              		ADD	(R4),R0
015302: 061410              		ADD	(R4),(R0)
015304: 061420              		ADD	(R4),(R0)+
015306: 061430              		ADD	(R4),@(R0)+
015310: 061440              		ADD	(R4),-(R0)
015312: 061450              		ADD	(R4),@-(R0)
015314: 061460 061470       		ADD	(R4),61470(R0)
015320: 061500              		ADD	(R5),R0
015322: 061510              		ADD	(R5),(R0)
015324: 061520              		ADD	(R5),(R0)+
015326: 061530              		ADD	(R5),@(R0)+
015330: 061540              		ADD	(R5),-(R0)
015332: 061550              		ADD	(R5),@-(R0)
015334: 061560 061570       		ADD	(R5),61570(R0)
015340: 061600              		ADD	(SP),R0
015342: 061610              		ADD	(SP),(R0)
015344: 061620              		ADD	(SP),(R0)+
015346: 061630              		ADD	(SP),@(R0)+
015350: 061640              		ADD	(SP),-(R0)
015352: 061650              		ADD	(SP),@-(R0)
015354: 061660 061670       		ADD	(SP),61670(R0)
015360: 061700              		ADD	(PC),R0
015362: 061710              		ADD	(PC),(R0)
015364: 061720              		ADD	(PC),(R0)+
015366: 061730              		ADD	(PC),@(R0)+
015370: 061740              		ADD	(PC),-(R0)
015372: 061750              		ADD	(PC),@-(R0)
015374: 061760 061770       		ADD	(PC),61770(R0)
015400: 062000              		ADD	(R0)+,R0
015402: 062010              		ADD	(R0)+,(R0)
015404: 062020              		ADD	(R0)+,(R0)+
015406: 062030              		ADD	(R0)+,@(R0)+
015410: 062040              		ADD	(R0)+,-(R0)
015412: 062050              		ADD	(R0)+,@-(R0)
015414: 062060 062070       		ADD	(R0)+,62070(R0)
015420: 062100              		ADD	(R1)+,R0
015422: 062110              		ADD	(R1)+,(R0)
015424: 062120              		ADD	(R1)+,(R0)+
015426: 062130              		ADD	(R1)+,@(R0)+
015430: 062140              		ADD	(R1)+,-(R0)
015432: 062150              		ADD	(R1)+,@-(R0)
015434: 062160 062170       		ADD	(R1)+,62170(R0)
015440: 062200              		ADD	(R2)+,R0
015442: 062210              		ADD	(R2)+,(R0)
015444: 062220              		ADD	(R2)+,(R0)+
015446: 062230              		ADD	(R2)+,@(R0)+
015450: 062240              		ADD	(R2)+,-(R0)
015452: 062250              		ADD	(R2)+,@-(R0)
015454: 062260 062270       		ADD	(R2)+,62270(R0)
015460: 062300              		ADD	(R3)+,R0
015462: 062310              		ADD	(R3)+,(R0)
015464: 062320              		ADD	(R3)+,(R0)+
015466: 062330              		ADD	(R3)+,@(R0)+
015470: 062340              		ADD	(R3)+,-(R0)
015472: 062350              		ADD	(R3)+,@-(R0)
015474: 062360 062370       		ADD	(R3)+,62370(R0)
015500: 062400              		ADD	(R4)+,R0
015502: 062410              		ADD	(R4)+,(R0)
015504: 062420              		ADD	(R4)+,(R0)+
015506: 062430              		ADD	(R4)+,@(R0)+
015510: 062440              		ADD	(R4)+,-(R0)
015512: 062450              		ADD	(R4)+,@-(R0)
015514: 062460 062470       		ADD	(R4)+,62470(R0)
015520: 062500              		ADD	(R5)+,R0
015522: 062510              		ADD	(R5)+,(R0)
015524: 062520              		ADD	(R5)+,(R0)+
015526: 062530              		ADD	(R5)+,@(R0)+
015530: 062540              		ADD	(R5)+,-(R0)
015532: 062550              		ADD	(R5)+,@-(R0)
015534: 062560 062570       		ADD	(R5)+,62570(R0)
015540: 062600              		ADD	(SP)+,R0
015542: 062610              		ADD	(SP)+,(R0)
015544: 062620              		ADD	(SP)+,(R0)+
015546: 062630              		ADD	(SP)+,@(R0)+
015550: 062640              		ADD	(SP)+,-(R0)
015552: 062650              		ADD	(SP)+,@-(R0)
015554: 062660 062670       		ADD	(SP)+,62670(R0)
015560: 062700 062710       		ADD	#62710,R0
015564: 062720 062730       		ADD	#62730,(R0)+
015570: 062740 062750       		ADD	#62750,-(R0)
015574: 062760 062770 063000		ADD	#62770,63000(R0)
015602: 063010              		ADD	@(R0)+,(R0)
015604: 063020              		ADD	@(R0)+,(R0)+
015606: 063030              		ADD	@(R0)+,@(R0)+
015610: 063040              		ADD	@(R0)+,-(R0)
015612: 063050              		ADD	@(R0)+,@-(R0)
015614: 063060 063070       		ADD	@(R0)+,63070(R0)
015620: 063100              		ADD	@(R1)+,R0
015622: 063110              		ADD	@(R1)+,(R0)
015624: 063120              		ADD	@(R1)+,(R0)+
015626: 063130              		ADD	@(R1)+,@(R0)+
015630: 063140              		ADD	@(R1)+,-(R0)
015632: 063150              		ADD	@(R1)+,@-(R0)
015634: 063160 063170       		ADD	@(R1)+,63170(R0)
015640: 063200              		ADD	@(R2)+,R0
015642: 063210              		ADD	@(R2)+,(R0)
015644: 063220              		ADD	@(R2)+,(R0)+
015646: 063230              		ADD	@(R2)+,@(R0)+
015650: 063240              		ADD	@(R2)+,-(R0)
015652: 063250              		ADD	@(R2)+,@-(R0)
015654: 063260 063270       		ADD	@(R2)+,63270(R0)
015660: 063300              		ADD	@(R3)+,R0
015662: 063310              		ADD	@(R3)+,(R0)
015664: 063320              		ADD	@(R3)+,(R0)+
015666: 063330              		ADD	@(R3)+,@(R0)+
015670: 063340              		ADD	@(R3)+,-(R0)
015672: 063350              		ADD	@(R3)+,@-(R0)
015674: 063360 063370       		ADD	@(R3)+,63370(R0)
015700: 063400              		ADD	@(R4)+,R0
015702: 063410              		ADD	@(R4)+,(R0)
015704: 063420              		ADD	@(R4)+,(R0)+
015706: 063430              		ADD	@(R4)+,@(R0)+
015710: 063440              		ADD	@(R4)+,-(R0)
015712: 063450              		ADD	@(R4)+,@-(R0)
015714: 063460 063470       		ADD	@(R4)+,63470(R0)
015720: 063500              		ADD	@(R5)+,R0
015722: 063510              		ADD	@(R5)+,(R0)
015724: 063520              		ADD	@(R5)+,(R0)+
015726: 063530              		ADD	@(R5)+,@(R0)+
015730: 063540              		ADD	@(R5)+,-(R0)
015732: 063550              		ADD	@(R5)+,@-(R0)
015734: 063560 063570       		ADD	@(R5)+,63570(R0)
015740: 063600              		ADD	@(SP)+,R0
015742: 063610              		ADD	@(SP)+,(R0)
015744: 063620              		ADD	@(SP)+,(R0)+
015746: 063630              		ADD	@(SP)+,@(R0)+
015750: 063640              		ADD	@(SP)+,-(R0)
015752: 063650              		ADD	@(SP)+,@-(R0)
015754: 063660 063670       		ADD	@(SP)+,63670(R0)
015760: 063700 063710       		ADD	@#63710,R0
015764: 063720 063730       		ADD	@#63730,(R0)+
015770: 063740 063750       		ADD	@#63750,-(R0)
015774: 063760 063770 064000		ADD	@#63770,64000(R0)
016002: 064010              		ADD	-(R0),(R0)
016004: 064020              		ADD	-(R0),(R0)+
016006: 064030              		ADD	-(R0),@(R0)+
016010: 064040              		ADD	-(R0),-(R0)
016012: 064050              		ADD	-(R0),@-(R0)
016014: 064060 064070       		ADD	-(R0),64070(R0)
016020: 064100              		ADD	-(R1),R0
016022: 064110              		ADD	-(R1),(R0)
016024: 064120              		ADD	-(R1),(R0)+
016026: 064130              		ADD	-(R1),@(R0)+
016030: 064140              		ADD	-(R1),-(R0)
016032: 064150              		ADD	-(R1),@-(R0)
016034: 064160 064170       		ADD	-(R1),64170(R0)
016040: 064200              		ADD	-(R2),R0
016042: 064210              		ADD	-(R2),(R0)
016044: 064220              		ADD	-(R2),(R0)+
016046: 064230              		ADD	-(R2),@(R0)+
016050: 064240              		ADD	-(R2),-(R0)
016052: 064250              		ADD	-(R2),@-(R0)
016054: 064260 064270       		ADD	-(R2),64270(R0)
016060: 064300              		ADD	-(R3),R0
016062: 064310              		ADD	-(R3),(R0)
016064: 064320              		ADD	-(R3),(R0)+
016066: 064330              		ADD	-(R3),@(R0)+
016070: 064340              		ADD	-(R3),-(R0)
016072: 064350              		ADD	-(R3),@-(R0)
016074: 064360 064370       		ADD	-(R3),64370(R0)
016100: 064400              		ADD	-(R4),R0
016102: 064410              		ADD	-(R4),(R0)
016104: 064420              		ADD	-(R4),(R0)+
016106: 064430              		ADD	-(R4),@(R0)+
016110: 064440              		ADD	-(R4),-(R0)
016112: 064450              		ADD	-(R4),@-(R0)
016114: 064460 064470       		ADD	-(R4),64470(R0)
016120: 064500              		ADD	-(R5),R0
016122: 064510              		ADD	-(R5),(R0)
016124: 064520              		ADD	-(R5),(R0)+
016126: 064530              		ADD	-(R5),@(R0)+
016130: 064540              		ADD	-(R5),-(R0)
016132: 064550              		ADD	-(R5),@-(R0)
016134: 064560 064570       		ADD	-(R5),64570(R0)
016140: 064600              		ADD	-(SP),R0
016142: 064610              		ADD	-(SP),(R0)
016144: 064620              		ADD	-(SP),(R0)+
016146: 064630              		ADD	-(SP),@(R0)+
016150: 064640              		ADD	-(SP),-(R0)
016152: 064650              		ADD	-(SP),@-(R0)
016154: 064660 064670       		ADD	-(SP),64670(R0)
016160: 064700              		ADD	-(PC),R0
016162: 064710              		ADD	-(PC),(R0)
016164: 064720              		ADD	-(PC),(R0)+
016166: 064730              		ADD	-(PC),@(R0)+
016170: 064740              		ADD	-(PC),-(R0)
016172: 064750              		ADD	-(PC),@-(R0)
016174: 064760 064770       		ADD	-(PC),64770(R0)
016200: 065000              		ADD	@-(R0),R0
016202: 065010              		ADD	@-(R0),(R0)
016204: 065020              		ADD	@-(R0),(R0)+
016206: 065030              		ADD	@-(R0),@(R0)+
016210: 065040              		ADD	@-(R0),-(R0)
016212: 065050              		ADD	@-(R0),@-(R0)
016214: 065060 065070       		ADD	@-(R0),65070(R0)
016220: 065100              		ADD	@-(R1),R0
016222: 065110              		ADD	@-(R1),(R0)
016224: 065120              		ADD	@-(R1),(R0)+
016226: 065130              		ADD	@-(R1),@(R0)+
016230: 065140              		ADD	@-(R1),-(R0)
016232: 065150              		ADD	@-(R1),@-(R0)
016234: 065160 065170       		ADD	@-(R1),65170(R0)
016240: 065200              		ADD	@-(R2),R0
016242: 065210              		ADD	@-(R2),(R0)
016244: 065220              		ADD	@-(R2),(R0)+
016246: 065230              		ADD	@-(R2),@(R0)+
016250: 065240              		ADD	@-(R2),-(R0)
016252: 065250              		ADD	@-(R2),@-(R0)
016254: 065260 065270       		ADD	@-(R2),65270(R0)
016260: 065300              		ADD	@-(R3),R0
016262: 065310              		ADD	@-(R3),(R0)
016264: 065320              		ADD	@-(R3),(R0)+
016266: 065330              		ADD	@-(R3),@(R0)+
016270: 065340              		ADD	@-(R3),-(R0)
016272: 065350              		ADD	@-(R3),@-(R0)
016274: 065360 065370       		ADD	@-(R3),65370(R0)
016300: 065400              		ADD	@-(R4),R0
016302: 065410              		ADD	@-(R4),(R0)
016304: 065420              		ADD	@-(R4),(R0)+
016306: 065430              		ADD	@-(R4),@(R0)+
016310: 065440              		ADD	@-(R4),-(R0)
016312: 065450              		ADD	@-(R4),@-(R0)
016314: 065460 065470       		ADD	@-(R4),65470(R0)
016320: 065500              		ADD	@-(R5),R0
016322: 065510              		ADD	@-(R5),(R0)
016324: 065520              		ADD	@-(R5),(R0)+
016326: 065530              		ADD	@-(R5),@(R0)+
016330: 065540              		ADD	@-(R5),-(R0)
016332: 065550              		ADD	@-(R5),@-(R0)
016334: 065560 065570       		ADD	@-(R5),65570(R0)
016340: 065600              		ADD	@-(SP),R0
016342: 065610              		ADD	@-(SP),(R0)
016344: 065620              		ADD	@-(SP),(R0)+
016346: 065630              		ADD	@-(SP),@(R0)+
016350: 065640              		ADD	@-(SP),-(R0)
016352: 065650              		ADD	@-(SP),@-(R0)
016354: 065660 065670       		ADD	@-(SP),65670(R0)
016360: 065700              		ADD	@-(PC),R0
016362: 065710              		ADD	@-(PC),(R0)
016364: 065720              		ADD	@-(PC),(R0)+
016366: 065730              		ADD	@-(PC),@(R0)+
016370: 065740              		ADD	@-(PC),-(R0)
016372: 065750              		ADD	@-(PC),@-(R0)
016374: 065760 065770       		ADD	@-(PC),65770(R0)
016400: 066000 066010       		ADD	66010(R0),R0
016404: 066020 066030       		ADD	66030(R0),(R0)+
016410: 066040 066050       		ADD	66050(R0),-(R0)
016414: 066060 066070 066100		ADD	66070(R0),66100(R0)
016422: 066110 066120       		ADD	66120(R1),(R0)
016426: 066130 066140       		ADD	66140(R1),@(R0)+
016432: 066150 066160       		ADD	66160(R1),@-(R0)
016436: 066170 066200 066210		ADD	66200(R1),@66210(R0)
016444: 066220 066230       		ADD	66230(R2),(R0)+
016450: 066240 066250       		ADD	66250(R2),-(R0)
016454: 066260 066270 066300		ADD	66270(R2),66300(R0)
016462: 066310 066320       		ADD	66320(R3),(R0)
016466: 066330 066340       		ADD	66340(R3),@(R0)+
016472: 066350 066360       		ADD	66360(R3),@-(R0)
016476: 066370 066400 066410		ADD	66400(R3),@66410(R0)
016504: 066420 066430       		ADD	66430(R4),(R0)+
016510: 066440 066450       		ADD	66450(R4),-(R0)
016514: 066460 066470 066500		ADD	66470(R4),66500(R0)
016522: 066510 066520       		ADD	66520(R5),(R0)
016526: 066530 066540       		ADD	66540(R5),@(R0)+
016532: 066550 066560       		ADD	66560(R5),@-(R0)
016536: 066570 066600 066610		ADD	66600(R5),@66610(R0)
016544: 066620 066630       		ADD	66630(SP),(R0)+
016550: 066640 066650       		ADD	66650(SP),-(R0)
016554: 066660 066670 066700		ADD	66670(SP),66700(R0)
016562: 066710 066720       		ADD	105506,(R0)
016566: 066730 066740       		ADD	105532,@(R0)+
016572: 066750 066760       		ADD	105556,@-(R0)
016576: 066770 067000 067010		ADD	105602,@67010(R0)
016604: 067020 067030       		ADD	@67030(R0),(R0)+
016610: 067040 067050       		ADD	@67050(R0),-(R0)
016614: 067060 067070 067100		ADD	@67070(R0),67100(R0)
016622: 067110 067120       		ADD	@67120(R1),(R0)
016626: 067130 067140       		ADD	@67140(R1),@(R0)+
016632: 067150 067160       		ADD	@67160(R1),@-(R0)
016636: 067170 067200 067210		ADD	@67200(R1),@67210(R0)
016644: 067220 067230       		ADD	@67230(R2),(R0)+
016650: 067240 067250       		ADD	@67250(R2),-(R0)
016654: 067260 067270 067300		ADD	@67270(R2),67300(R0)
016662: 067310 067320       		ADD	@67320(R3),(R0)
016666: 067330 067340       		ADD	@67340(R3),@(R0)+
016672: 067350 067360       		ADD	@67360(R3),@-(R0)
016676: 067370 067400 067410		ADD	@67400(R3),@67410(R0)
016704: 067420 067430       		ADD	@67430(R4),(R0)+
016710: 067440 067450       		ADD	@67450(R4),-(R0)
016714: 067460 067470 067500		ADD	@67470(R4),67500(R0)
016722: 067510 067520       		ADD	@67520(R5),(R0)
016726: 067530 067540       		ADD	@67540(R5),@(R0)+
016732: 067550 067560       		ADD	@67560(R5),@-(R0)
016736: 067570 067600 067610		ADD	@67600(R5),@67610(R0)
016744: 067620 067630       		ADD	@67630(SP),(R0)+
016750: 067640 067650       		ADD	@67650(SP),-(R0)
016754: 067660 067670 067700		ADD	@67670(SP),67700(R0)
016762: 067710 067720       		ADD	@106706,(R0)
016766: 067730 067740       		ADD	@106732,@(R0)+
016772: 067750 067760       		ADD	@106756,@-(R0)
016776: 067770 070000 070010		ADD	@107002,@70010(R0)
017004: 070020              		.#70020
017006: 070030              		.#70030
017010: 070040              		.#70040
017012: 070050              		.#70050
017014: 070060              		.#70060
017016: 070070              		.#70070
017020: 070100              		.#70100
017022: 070110              		.#70110
017024: 070120              		.#70120
017026: 070130              		.#70130
017030: 070140              		.#70140
017032: 070150              		.#70150
017034: 070160              		.#70160
017036: 070170              		.#70170
017040: 070200              		.#70200
017042: 070210              		.#70210
017044: 070220              		.#70220
017046: 070230              		.#70230
017050: 070240              		.#70240
017052: 070250              		.#70250
017054: 070260              		.#70260
017056: 070270              		.#70270
017060: 070300              		.#70300
017062: 070310              		.#70310
017064: 070320              		.#70320
017066: 070330              		.#70330
017070: 070340              		.#70340
017072: 070350              		.#70350
017074: 070360              		.#70360
017076: 070370              		.#70370
017100: 070400              		.#70400
017102: 070410              		.#70410
017104: 070420              		.#70420
017106: 070430              		.#70430
017110: 070440              		.#70440
017112: 070450              		.#70450
017114: 070460              		.#70460
017116: 070470              		.#70470
017120: 070500              		.#70500
017122: 070510              		.#70510
017124: 070520              		.#70520
017126: 070530              		.#70530
017130: 070540              		.#70540
017132: 070550              		.#70550
017134: 070560              		.#70560
017136: 070570              		.#70570
017140: 070600              		.#70600
017142: 070610              		.#70610
017144: 070620              		.#70620
017146: 070630              		.#70630
017150: 070640              		.#70640
017152: 070650              		.#70650
017154: 070660              		.#70660
017156: 070670              		.#70670
017160: 070700              		.#70700
017162: 070710              		.#70710
017164: 070720              		.#70720
017166: 070730              		.#70730
017170: 070740              		.#70740
017172: 070750              		.#70750
017174: 070760              		.#70760
017176: 070770              		.#70770
017200: 071000              		.#71000
017202: 071010              		.#71010
017204: 071020              		.#71020
017206: 071030              		.#71030
017210: 071040              		.#71040
017212: 071050              		.#71050
017214: 071060              		.#71060
017216: 071070              		.#71070
017220: 071100              		.#71100
017222: 071110              		.#71110
017224: 071120              		.#71120
017226: 071130              		.#71130
017230: 071140              		.#71140
017232: 071150              		.#71150
017234: 071160              		.#71160
017236: 071170              		.#71170
017240: 071200              		.#71200
017242: 071210              		.#71210
017244: 071220              		.#71220
017246: 071230              		.#71230
017250: 071240              		.#71240
017252: 071250              		.#71250
017254: 071260              		.#71260
017256: 071270              		.#71270
017260: 071300              		.#71300
017262: 071310              		.#71310
017264: 071320              		.#71320
017266: 071330              		.#71330
017270: 071340              		.#71340
017272: 071350              		.#71350
017274: 071360              		.#71360
017276: 071370              		.#71370
017300: 071400              		.#71400
017302: 071410              		.#71410
017304: 071420              		.#71420
017306: 071430              		.#71430
017310: 071440              		.#71440
017312: 071450              		.#71450
017314: 071460              		.#71460
017316: 071470              		.#71470
017320: 071500              		.#71500
017322: 071510              		.#71510
017324: 071520              		.#71520
017326: 071530              		.#71530
017330: 071540              		.#71540
017332: 071550              		.#71550
017334: 071560              		.#71560
017336: 071570              		.#71570
017340: 071600              		.#71600
017342: 071610              		.#71610
017344: 071620              		.#71620
017346: 071630              		.#71630
017350: 071640              		.#71640
017352: 071650              		.#71650
017354: 071660              		.#71660
017356: 071670              		.#71670
017360: 071700              		.#71700
017362: 071710              		.#71710
017364: 071720              		.#71720
017366: 071730              		.#71730
017370: 071740              		.#71740
017372: 071750              		.#71750
017374: 071760              		.#71760
017376: 071770              		.#71770
017400: 072000              		.#72000
017402: 072010              		.#72010
017404: 072020              		.#72020
017406: 072030              		.#72030
017410: 072040              		.#72040
017412: 072050              		.#72050
017414: 072060              		.#72060
017416: 072070              		.#72070
017420: 072100              		.#72100
017422: 072110              		.#72110
017424: 072120              		.#72120
017426: 072130              		.#72130
017430: 072140              		.#72140
017432: 072150              		.#72150
017434: 072160              		.#72160
017436: 072170              		.#72170
017440: 072200              		.#72200
017442: 072210              		.#72210
017444: 072220              		.#72220
017446: 072230              		.#72230
017450: 072240              		.#72240
017452: 072250              		.#72250
017454: 072260              		.#72260
017456: 072270              		.#72270
017460: 072300              		.#72300
017462: 072310              		.#72310
017464: 072320              		.#72320
017466: 072330              		.#72330
017470: 072340              		.#72340
017472: 072350              		.#72350
017474: 072360              		.#72360
017476: 072370              		.#72370
017500: 072400              		.#72400
017502: 072410              		.#72410
017504: 072420              		.#72420
017506: 072430              		.#72430
017510: 072440              		.#72440
017512: 072450              		.#72450
017514: 072460              		.#72460
017516: 072470              		.#72470
017520: 072500              		.#72500
017522: 072510              		.#72510
017524: 072520              		.#72520
017526: 072530              		.#72530
017530: 072540              		.#72540
017532: 072550              		.#72550
017534: 072560              		.#72560
017536: 072570              		.#72570
017540: 072600              		.#72600
017542: 072610              		.#72610
017544: 072620              		.#72620
017546: 072630              		.#72630
017550: 072640              		.#72640
017552: 072650              		.#72650
017554: 072660              		.#72660
017556: 072670              		.#72670
017560: 072700              		.#72700
017562: 072710              		.#72710
017564: 072720              		.#72720
017566: 072730              		.#72730
017570: 072740              		.#72740
017572: 072750              		.#72750
017574: 072760              		.#72760
017576: 072770              		.#72770
017600: 073000              		.#73000
017602: 073010              		.#73010
017604: 073020              		.#73020
017606: 073030              		.#73030
017610: 073040              		.#73040
017612: 073050              		.#73050
017614: 073060              		.#73060
017616: 073070              		.#73070
017620: 073100              		.#73100
017622: 073110              		.#73110
017624: 073120              		.#73120
017626: 073130              		.#73130
017630: 073140              		.#73140
017632: 073150              		.#73150
017634: 073160              		.#73160
017636: 073170              		.#73170
017640: 073200              		.#73200
017642: 073210              		.#73210
017644: 073220              		.#73220
017646: 073230              		.#73230
017650: 073240              		.#73240
017652: 073250              		.#73250
017654: 073260              		.#73260
017656: 073270              		.#73270
017660: 073300              		.#73300
017662: 073310              		.#73310
017664: 073320              		.#73320
017666: 073330              		.#73330
017670: 073340              		.#73340
017672: 073350              		.#73350
017674: 073360              		.#73360
017676: 073370              		.#73370
017700: 073400              		.#73400
017702: 073410              		.#73410
017704: 073420              		.#73420
017706: 073430              		.#73430
017710: 073440              		.#73440
017712: 073450              		.#73450
017714: 073460              		.#73460
017716: 073470              		.#73470
017720: 073500              		.#73500
017722: 073510              		.#73510
017724: 073520              		.#73520
017726: 073530              		.#73530
017730: 073540              		.#73540
017732: 073550              		.#73550
017734: 073560              		.#73560
017736: 073570              		.#73570
017740: 073600              		.#73600
017742: 073610              		.#73610
017744: 073620              		.#73620
017746: 073630              		.#73630
017750: 073640              		.#73640
017752: 073650              		.#73650
017754: 073660              		.#73660
017756: 073670              		.#73670
017760: 073700              		.#73700
017762: 073710              		.#73710
017764: 073720              		.#73720
017766: 073730              		.#73730
017770: 073740              		.#73740
017772: 073750              		.#73750
017774: 073760              		.#73760
017776: 073770              		.#73770
020000: 074000              		XOR	R0,R0
020002: 074010              		XOR	R0,(R0)
020004: 074020              		XOR	R0,(R0)+
020006: 074030              		XOR	R0,@(R0)+
020010: 074040              		XOR	R0,-(R0)
020012: 074050              		XOR	R0,@-(R0)
020014: 074060 074070       		XOR	R0,74070(R0)
020020: 074100              		XOR	R1,R0
020022: 074110              		XOR	R1,(R0)
020024: 074120              		XOR	R1,(R0)+
020026: 074130              		XOR	R1,@(R0)+
020030: 074140              		XOR	R1,-(R0)
020032: 074150              		XOR	R1,@-(R0)
020034: 074160 074170       		XOR	R1,74170(R0)
020040: 074200              		XOR	R2,R0
020042: 074210              		XOR	R2,(R0)
020044: 074220              		XOR	R2,(R0)+
020046: 074230              		XOR	R2,@(R0)+
020050: 074240              		XOR	R2,-(R0)
020052: 074250              		XOR	R2,@-(R0)
020054: 074260 074270       		XOR	R2,74270(R0)
020060: 074300              		XOR	R3,R0
020062: 074310              		XOR	R3,(R0)
020064: 074320              		XOR	R3,(R0)+
020066: 074330              		XOR	R3,@(R0)+
020070: 074340              		XOR	R3,-(R0)
020072: 074350              		XOR	R3,@-(R0)
020074: 074360 074370       		XOR	R3,74370(R0)
020100: 074400              		XOR	R4,R0
020102: 074410              		XOR	R4,(R0)
020104: 074420              		XOR	R4,(R0)+
020106: 074430              		XOR	R4,@(R0)+
020110: 074440              		XOR	R4,-(R0)
020112: 074450              		XOR	R4,@-(R0)
020114: 074460 074470       		XOR	R4,74470(R0)
020120: 074500              		XOR	R5,R0
020122: 074510              		XOR	R5,(R0)
020124: 074520              		XOR	R5,(R0)+
020126: 074530              		XOR	R5,@(R0)+
020130: 074540              		XOR	R5,-(R0)
020132: 074550              		XOR	R5,@-(R0)
020134: 074560 074570       		XOR	R5,74570(R0)
020140: 074600              		XOR	SP,R0
020142: 074610              		XOR	SP,(R0)
020144: 074620              		XOR	SP,(R0)+
020146: 074630              		XOR	SP,@(R0)+
020150: 074640              		XOR	SP,-(R0)
020152: 074650              		XOR	SP,@-(R0)
020154: 074660 074670       		XOR	SP,74670(R0)
020160: 074700              		XOR	PC,R0
020162: 074710              		XOR	PC,(R0)
020164: 074720              		XOR	PC,(R0)+
020166: 074730              		XOR	PC,@(R0)+
020170: 074740              		XOR	PC,-(R0)
020172: 074750              		XOR	PC,@-(R0)
020174: 074760 074770       		XOR	PC,74770(R0)
020200: 075000              		.#75000
020202: 075010              		.#75010
020204: 075020              		.#75020
020206: 075030              		.#75030
020210: 075040              		.#75040
020212: 075050              		.#75050
020214: 075060              		.#75060
020216: 075070              		.#75070
020220: 075100              		.#75100
020222: 075110              		.#75110
020224: 075120              		.#75120
020226: 075130              		.#75130
020230: 075140              		.#75140
020232: 075150              		.#75150
020234: 075160              		.#75160
020236: 075170              		.#75170
020240: 075200              		.#75200
020242: 075210              		.#75210
020244: 075220              		.#75220
020246: 075230              		.#75230
020250: 075240              		.#75240
020252: 075250              		.#75250
020254: 075260              		.#75260
020256: 075270              		.#75270
020260: 075300              		.#75300
020262: 075310              		.#75310
020264: 075320              		.#75320
020266: 075330              		.#75330
020270: 075340              		.#75340
020272: 075350              		.#75350
020274: 075360              		.#75360
020276: 075370              		.#75370
020300: 075400              		.#75400
020302: 075410              		.#75410
020304: 075420              		.#75420
020306: 075430              		.#75430
020310: 075440              		.#75440
020312: 075450              		.#75450
020314: 075460              		.#75460
020316: 075470              		.#75470
020320: 075500              		.#75500
020322: 075510              		.#75510
020324: 075520              		.#75520
020326: 075530              		.#75530
020330: 075540              		.#75540
020332: 075550              		.#75550
020334: 075560              		.#75560
020336: 075570              		.#75570
020340: 075600              		.#75600
020342: 075610              		.#75610
020344: 075620              		.#75620
020346: 075630              		.#75630
020350: 075640              		.#75640
020352: 075650              		.#75650
020354: 075660              		.#75660
020356: 075670              		.#75670
020360: 075700              		.#75700
020362: 075710              		.#75710
020364: 075720              		.#75720
020366: 075730              		.#75730
020370: 075740              		.#75740
020372: 075750              		.#75750
020374: 075760              		.#75760
020376: 075770              		.#75770
020400: 076000              		.#76000
020402: 076010              		.#76010
020404: 076020              		.#76020
020406: 076030              		.#76030
020410: 076040              		.#76040
020412: 076050              		.#76050
020414: 076060              		.#76060
020416: 076070              		.#76070
020420: 076100              		.#76100
020422: 076110              		.#76110
020424: 076120              		.#76120
020426: 076130              		.#76130
020430: 076140              		.#76140
020432: 076150              		.#76150
020434: 076160              		.#76160
020436: 076170              		.#76170
020440: 076200              	L245:	.#76200
020442: 076210              		.#76210
020444: 076220              		.#76220
020446: 076230              		.#76230
020450: 076240              		.#76240
020452: 076250              		.#76250
020454: 076260              		.#76260
020456: 076270              	L244:	.#76270
020460: 076300              	L253:	.#76300
020462: 076310              		.#76310
020464: 076320              	L319:	.#76320
020466: 076330              		.#76330
020470: 076340              		.#76340
020472: 076350              		.#76350
020474: 076360              	L243:	.#76360
020476: 076370              	L252:	.#76370
020500: 076400              	L261:	.#76400
020502: 076410              		.#76410
020504: 076420              		.#76420
020506: 076430              	L320:	.#76430
020510: 076440              		.#76440
020512: 076450              	L242:	.#76450
020514: 076460              	L251:	.#76460
020516: 076470              	L260:	.#76470
020520: 076500              	L269:	.#76500
020522: 076510              		.#76510
020524: 076520              		.#76520
020526: 076530              		.#76530
020530: 076540              	L241:	.#76540
020532: 076550              	L250:	.#76550
020534: 076560              	L259:	.#76560
020536: 076570              	L268:	.#76570
020540: 076600              	L277:	.#76600
020542: 076610              		.#76610
020544: 076620              		.#76620
020546: 076630              	L240:	.#76630
020550: 076640              	L249:	.#76640
020552: 076650              	L258:	.#76650
020554: 076660              	L267:	.#76660
020556: 076670              	L276:	.#76670
020560: 076700              	L285:	.#76700
020562: 076710              		.#76710
020564: 076720              	L239:	.#76720
020566: 076730              	L248:	.#76730
020570: 076740              	L257:	.#76740
020572: 076750              	L266:	.#76750
020574: 076760              	L275:	.#76760
020576: 076770              	L284:	.#76770
020600: 077000              	L293:	SOB	R0,L238

020602: 077010              	L238:	SOB	R0,L239

020604: 077020              	L247:	SOB	R0,L240

020606: 077030              	L256:	SOB	R0,L241

020610: 077040              	L265:	SOB	R0,L242

020612: 077050              	L274:	SOB	R0,L243

020614: 077060              	L283:	SOB	R0,L244

020616: 077070              	L292:	SOB	R0,L245

020620: 077100              	L301:	SOB	R1,L246

020622: 077110              	L246:	SOB	R1,L247

020624: 077120              	L255:	SOB	R1,L248

020626: 077130              	L264:	SOB	R1,L249

020630: 077140              	L273:	SOB	R1,L250

020632: 077150              	L282:	SOB	R1,L251

020634: 077160              	L291:	SOB	R1,L252

020636: 077170              	L300:	SOB	R1,L253

020640: 077200              	L321:	SOB	R2,L254

020642: 077210              	L254:	SOB	R2,L255

020644: 077220              	L263:	SOB	R2,L256

020646: 077230              	L272:	SOB	R2,L257

020650: 077240              	L281:	SOB	R2,L258

020652: 077250              	L290:	SOB	R2,L259

020654: 077260              	L299:	SOB	R2,L260

020656: 077270              		SOB	R2,L261

020660: 077300              		SOB	R3,L262

020662: 077310              	L262:	SOB	R3,L263

020664: 077320              	L271:	SOB	R3,L264

020666: 077330              	L280:	SOB	R3,L265

020670: 077340              	L289:	SOB	R3,L266

020672: 077350              	L298:	SOB	R3,L267

020674: 077360              	L344:	SOB	R3,L268

020676: 077370              		SOB	R3,L269

020700: 077400              		SOB	R4,L270

020702: 077410              	L270:	SOB	R4,L271

020704: 077420              	L279:	SOB	R4,L272

020706: 077430              	L288:	SOB	R4,L273

020710: 077440              	L297:	SOB	R4,L274

020712: 077450              		SOB	R4,L275

020714: 077460              		SOB	R4,L276

020716: 077470              	L345:	SOB	R4,L277

020720: 077500              		SOB	R5,L278

020722: 077510              	L278:	SOB	R5,L279

020724: 077520              	L287:	SOB	R5,L280

020726: 077530              	L296:	SOB	R5,L281

020730: 077540              	L371:	SOB	R5,L282

020732: 077550              		SOB	R5,L283

020734: 077560              		SOB	R5,L284

020736: 077570              		SOB	R5,L285

020740: 077600              	L346:	SOB	SP,L286

020742: 077610              	L286:	SOB	SP,L287

020744: 077620              	L295:	SOB	SP,L288

020746: 077630              		SOB	SP,L289

020750: 077640              	L322:	SOB	SP,L290

020752: 077650              	L372:	SOB	SP,L291

020754: 077660              		SOB	SP,L292

020756: 077670              		SOB	SP,L293

020760: 077700              		SOB	PC,L294

020762: 077710              	L294:	SOB	PC,L295

020764: 077720              	L401:	SOB	PC,L296

020766: 077730              		SOB	PC,L297

020770: 077740              		SOB	PC,L298

020772: 077750              	L323:	SOB	PC,L299

020774: 077760              	L373:	SOB	PC,L300

020776: 077770              		SOB	PC,L301

021000: 100000              		BPL	L302
021002: 100010              	L302:	BPL	L303
021004: 100020              	L347:	BPL	L304
021006: 100030              	L402:	BPL	L305
021010: 100040              		BPL	L306
021012: 100050              		BPL	L307
021014: 100060              	L324:	BPL	L308
021016: 100070              	L374:	BPL	L309
021020: 100100              		BPL	L310
021022: 100110              		BPL	L311
021024: 100120              	L303:	BPL	L312
021026: 100130              	L348:	BPL	L313
021030: 100140              	L403:	BPL	L314
021032: 100150              		BPL	L315
021034: 100160              		BPL	L316
021036: 100170              	L325:	BPL	L317
021040: 100200              	L375:	BPL	L318
021042: 100210              		BPL	L319
021044: 100220              		BPL	L320
021046: 100230              	L304:	BPL	L241
021050: 100240              	L349:	BPL	L258
021052: 100250              	L404:	BPL	L275
021054: 100260              		BPL	L292
021056: 100270              		BPL	L321
021060: 100300              	L326:	BPL	L262
021062: 100310              	L376:	BPL	L279
021064: 100320              	L433:	BPL	L296
021066: 100330              		BPL	L322
021070: 100340              	L305:	BPL	L323
021072: 100350              	L350:	BPL	L324
021074: 100360              	L405:	BPL	L325
021076: 100370              		BPL	L326
021100: 100400              		BMI	L327
021102: 100410              	L327:	BMI	L328
021104: 100420              	L377:	BMI	L329
021106: 100430              	L434:	BMI	L330
021110: 100440              		BMI	L331
021112: 100450              	L306:	BMI	L332
021114: 100460              	L351:	BMI	L333
021116: 100470              	L406:	BMI	L334
021120: 100500              		BMI	L335
021122: 100510              		BMI	L336
021124: 100520              	L328:	BMI	L337
021126: 100530              	L378:	BMI	L338
021130: 100540              	L435:	BMI	L339
021132: 100550              		BMI	L340
021134: 100560              	L307:	BMI	L341
021136: 100570              	L352:	BMI	L342
021140: 100600              	L407:	BMI	L343
021142: 100610              		BMI	L239
021144: 100620              		BMI	L256
021146: 100630              	L329:	BMI	L273
021150: 100640              	L379:	BMI	L290
021152: 100650              	L436:	BMI	L344
021154: 100660              		BMI	L345
021156: 100670              	L308:	BMI	L346
021160: 100700              	L353:	BMI	L294
021162: 100710              	L408:	BMI	L347
021164: 100720              	L465:	BMI	L348
021166: 100730              		BMI	L349
021170: 100740              	L330:	BMI	L350
021172: 100750              	L380:	BMI	L351
021174: 100760              	L437:	BMI	L352
021176: 100770              		BMI	L353
021200: 101000              	L309:	BHI	L354
021202: 101010              	L354:	BHI	L355
021204: 101020              	L409:	BHI	L356
021206: 101030              	L466:	BHI	L357
021210: 101040              		BHI	L358
021212: 101050              	L331:	BHI	L359
021214: 101060              	L381:	BHI	L360
021216: 101070              	L438:	BHI	L361
021220: 101100              		BHI	L362
021222: 101110              	L310:	BHI	L363
021224: 101120              	L355:	BHI	L364
021226: 101130              	L410:	BHI	L365
021230: 101140              	L467:	BHI	L366
021232: 101150              		BHI	L367
021234: 101160              	L332:	BHI	L368
021236: 101170              	L382:	BHI	L369
021240: 101200              	L439:	BHI	L370
021242: 101210              		BHI	L271
021244: 101220              	L311:	BHI	L288
021246: 101230              	L356:	BHI	L371
021250: 101240              	L411:	BHI	L372
021252: 101250              	L468:	BHI	L373
021254: 101260              		BHI	L374
021256: 101270              	L333:	BHI	L375
021260: 101300              	L383:	BHI	L376
021262: 101310              	L440:	BHI	L377
021264: 101320              	L497:	BHI	L378
021266: 101330              	L312:	BHI	L379
021270: 101340              	L357:	BHI	L380
021272: 101350              	L412:	BHI	L381
021274: 101360              	L469:	BHI	L382
021276: 101370              		BHI	L383
021300: 101400              	L334:	BLOS	L384
021302: 101410              	L384:	BLOS	L385
021304: 101420              	L441:	BLOS	L386
021306: 101430              	L498:	BLOS	L387
021310: 101440              	L313:	BLOS	L388
021312: 101450              	L358:	BLOS	L389
021314: 101460              	L413:	BLOS	L390
021316: 101470              	L470:	BLOS	L391
021320: 101500              		BLOS	L392
021322: 101510              	L335:	BLOS	L393
021324: 101520              	L385:	BLOS	L394
021326: 101530              	L442:	BLOS	L395
021330: 101540              	L499:	BLOS	L396
021332: 101550              	L314:	BLOS	L397
021334: 101560              	L359:	BLOS	L398
021336: 101570              	L414:	BLOS	L399
021340: 101600              	L471:	BLOS	L400
021342: 101610              		BLOS	L401
021344: 101620              	L336:	BLOS	L402
021346: 101630              	L386:	BLOS	L403
021350: 101640              	L443:	BLOS	L404
021352: 101650              	L500:	BLOS	L405
021354: 101660              	L315:	BLOS	L406
021356: 101670              	L360:	BLOS	L407
021360: 101700              	L415:	BLOS	L408
021362: 101710              	L472:	BLOS	L409
021364: 101720              	L529:	BLOS	L410
021366: 101730              	L337:	BLOS	L411
021370: 101740              	L387:	BLOS	L412
021372: 101750              	L444:	BLOS	L413
021374: 101760              	L501:	BLOS	L414
021376: 101770              	L316:	BLOS	L415
021400: 102000              	L361:	BVC	L416
021402: 102010              	L416:	BVC	L417
021404: 102020              	L473:	BVC	L418
021406: 102030              	L530:	BVC	L419
021410: 102040              	L338:	BVC	L420
021412: 102050              	L388:	BVC	L421
021414: 102060              	L445:	BVC	L422
021416: 102070              	L502:	BVC	L423
021420: 102100              	L317:	BVC	L424
021422: 102110              	L362:	BVC	L425
021424: 102120              	L417:	BVC	L426
021426: 102130              	L474:	BVC	L427
021430: 102140              	L531:	BVC	L428
021432: 102150              	L339:	BVC	L429
021434: 102160              	L389:	BVC	L430
021436: 102170              	L446:	BVC	L431
021440: 102200              	L503:	BVC	L432
021442: 102210              	L318:	BVC	L433
021444: 102220              	L363:	BVC	L434
021446: 102230              	L418:	BVC	L435
021450: 102240              	L475:	BVC	L436
021452: 102250              	L532:	BVC	L437
021454: 102260              	L340:	BVC	L438
021456: 102270              	L390:	BVC	L439
021460: 102300              	L447:	BVC	L440
021462: 102310              	L504:	BVC	L441
021464: 102320              		BVC	L442
021466: 102330              	L364:	BVC	L443
021470: 102340              	L419:	BVC	L444
021472: 102350              	L476:	BVC	L445
021474: 102360              	L533:	BVC	L446
021476: 102370              	L341:	BVC	L447
021500: 102400              	L391:	BVS	L448
021502: 102410              	L448:	BVS	L449
021504: 102420              	L505:	BVS	L450
021506: 102430              		BVS	L451
021510: 102440              	L365:	BVS	L452
021512: 102450              	L420:	BVS	L453
021514: 102460              	L477:	BVS	L454
021516: 102470              	L534:	BVS	L455
021520: 102500              	L342:	BVS	L456
021522: 102510              	L392:	BVS	L457
021524: 102520              	L449:	BVS	L458
021526: 102530              	L506:	BVS	L459
021530: 102540              		BVS	L460
021532: 102550              	L366:	BVS	L461
021534: 102560              	L421:	BVS	L462
021536: 102570              	L478:	BVS	L463
021540: 102600              	L535:	BVS	L464
021542: 102610              	L343:	BVS	L465
021544: 102620              	L393:	BVS	L466
021546: 102630              	L450:	BVS	L467
021550: 102640              	L507:	BVS	L468
021552: 102650              		BVS	L469
021554: 102660              	L367:	BVS	L470
021556: 102670              	L422:	BVS	L471
021560: 102700              	L479:	BVS	L472
021562: 102710              	L536:	BVS	L473
021564: 102720              		BVS	L474
021566: 102730              	L394:	BVS	L475
021570: 102740              	L451:	BVS	L476
021572: 102750              	L508:	BVS	L477
021574: 102760              		BVS	L478
021576: 102770              	L368:	BVS	L479
021600: 103000              	L423:	BCC	L480
021602: 103010              	L480:	BCC	L481
021604: 103020              	L537:	BCC	L482
021606: 103030              		BCC	L483
021610: 103040              	L395:	BCC	L484
021612: 103050              	L452:	BCC	L485
021614: 103060              	L509:	BCC	L486
021616: 103070              		BCC	L487
021620: 103100              	L369:	BCC	L488
021622: 103110              	L424:	BCC	L489
021624: 103120              	L481:	BCC	L490
021626: 103130              	L538:	BCC	L491
021630: 103140              		BCC	L492
021632: 103150              	L396:	BCC	L493
021634: 103160              	L453:	BCC	L494
021636: 103170              	L510:	BCC	L495
021640: 103200              		BCC	L496
021642: 103210              	L370:	BCC	L497
021644: 103220              	L425:	BCC	L498
021646: 103230              	L482:	BCC	L499
021650: 103240              	L539:	BCC	L500
021652: 103250              		BCC	L501
021654: 103260              	L397:	BCC	L502
021656: 103270              	L454:	BCC	L503
021660: 103300              	L511:	BCC	L504
021662: 103310              		BCC	L505
021664: 103320              		BCC	L506
021666: 103330              	L426:	BCC	L507
021670: 103340              	L483:	BCC	L508
021672: 103350              	L540:	BCC	L509
021674: 103360              		BCC	L510
021676: 103370              	L398:	BCC	L511
021700: 103400              	L455:	BCS	L512
021702: 103410              	L512:	BCS	L513
021704: 103420              		BCS	L514
021706: 103430              		BCS	L515
021710: 103440              	L427:	BCS	L516
021712: 103450              	L484:	BCS	L517
021714: 103460              	L541:	BCS	L518
021716: 103470              		BCS	L519
021720: 103500              	L399:	BCS	L520
021722: 103510              	L456:	BCS	L521
021724: 103520              	L513:	BCS	L522
021726: 103530              		BCS	L523
021730: 103540              		BCS	L524
021732: 103550              	L428:	BCS	L525
021734: 103560              	L485:	BCS	L526+2
021736: 103570              	L542:	BCS	L527
021740: 103600              		BCS	L528
021742: 103610              	L400:	BCS	L529
021744: 103620              	L457:	BCS	L530
021746: 103630              	L514:	BCS	L531
021750: 103640              		BCS	L532
021752: 103650              		BCS	L533
021754: 103660              	L429:	BCS	L534
021756: 103670              	L486:	BCS	L535
021760: 103700              	L543:	BCS	L536
021762: 103710              		BCS	L537
021764: 103720              		BCS	L538
021766: 103730              	L458:	BCS	L539
021770: 103740              	L515:	BCS	L540
021772: 103750              		BCS	L541
021774: 103760              		BCS	L542
021776: 103770              	L430:	BCS	L543
022000: 104000              	L487:	EMT	0
022002: 104010              		EMT	10
022004: 104020              		EMT	20
022006: 104030              		EMT	30
022010: 104040              	L459:	EMT	40
022012: 104050              	L516:	EMT	50
022014: 104060              		EMT	60
022016: 104070              		EMT	70
022020: 104100              	L431:	EMT	100
022022: 104110              	L488:	EMT	110
022024: 104120              		EMT	120
022026: 104130              		EMT	130
022030: 104140              		EMT	140
022032: 104150              	L460:	EMT	150
022034: 104160              	L517:	EMT	160
022036: 104170              		EMT	170
022040: 104200              		EMT	200
022042: 104210              	L432:	EMT	210
022044: 104220              	L489:	EMT	220
022046: 104230              		EMT	230
022050: 104240              		EMT	240
022052: 104250              		EMT	250
022054: 104260              	L461:	EMT	260
022056: 104270              	L518:	EMT	270
022060: 104300              		EMT	300
022062: 104310              		EMT	310
022064: 104320              		EMT	320
022066: 104330              	L490:	EMT	330
022070: 104340              		EMT	340
022072: 104350              		EMT	350
022074: 104360              		EMT	360
022076: 104370              	L462:	EMT	370
022100: 104400              	L519:	TRAP	0
022102: 104410              		TRAP	10
022104: 104420              		TRAP	20
022106: 104430              		TRAP	30
022110: 104440              	L491:	TRAP	40
022112: 104450              		TRAP	50
022114: 104460              		TRAP	60
022116: 104470              		TRAP	70
022120: 104500              	L463:	TRAP	100
022122: 104510              	L520:	TRAP	110
022124: 104520              		TRAP	120
022126: 104530              		TRAP	130
022130: 104540              		TRAP	140
022132: 104550              	L492:	TRAP	150
022134: 104560              		TRAP	160
022136: 104570              		TRAP	170
022140: 104600              		TRAP	200
022142: 104610              	L464:	TRAP	210
022144: 104620              	L521:	TRAP	220
022146: 104630              		TRAP	230
022150: 104640              		TRAP	240
022152: 104650              		TRAP	250
022154: 104660              	L493:	TRAP	260
022156: 104670              		TRAP	270
022160: 104700              		TRAP	300
022162: 104710              		TRAP	310
022164: 104720              		TRAP	320
022166: 104730              	L522:	TRAP	330
022170: 104740              		TRAP	340
022172: 104750              		TRAP	350
022174: 104760              		TRAP	360
022176: 104770              	L494:	TRAP	370
022200: 105000              		CLRB	R0
022202: 105010              		CLRB	(R0)
022204: 105020              		CLRB	(R0)+
022206: 105030              		CLRB	@(R0)+
022210: 105040              	L523:	CLRB	-(R0)
022212: 105050              		CLRB	@-(R0)
022214: 105060 105070       		CLRB	105070(R0)
022220: 105100              	L495:	COMB	R0
022222: 105110              		COMB	(R0)
022224: 105120              		COMB	(R0)+
022226: 105130              		COMB	@(R0)+
022230: 105140              		COMB	-(R0)
022232: 105150              	L524:	COMB	@-(R0)
022234: 105160 105170       		COMB	105170(R0)
022240: 105200              		INCB	R0
022242: 105210              	L496:	INCB	(R0)
022244: 105220              		INCB	(R0)+
022246: 105230              		INCB	@(R0)+
022250: 105240              		INCB	-(R0)
022252: 105250              		INCB	@-(R0)
022254: 105260 105270       	L525:	INCB	105270(R0)
022260: 105300              		DECB	R0
022262: 105310              		DECB	(R0)
022264: 105320              		DECB	(R0)+
022266: 105330              		DECB	@(R0)+
022270: 105340              		DECB	-(R0)
022272: 105350              		DECB	@-(R0)
022274: 105360 105370       	L526:	DECB	105370(R0)
022300: 105400              		NEGB	R0
022302: 105410              		NEGB	(R0)
022304: 105420              		NEGB	(R0)+
022306: 105430              		NEGB	@(R0)+
022310: 105440              		NEGB	-(R0)
022312: 105450              		NEGB	@-(R0)
022314: 105460 105470       		NEGB	105470(R0)
022320: 105500              	L527:	ADCB	R0
022322: 105510              		ADCB	(R0)
022324: 105520              		ADCB	(R0)+
022326: 105530              		ADCB	@(R0)+
022330: 105540              		ADCB	-(R0)
022332: 105550              		ADCB	@-(R0)
022334: 105560 105570       		ADCB	105570(R0)
022340: 105600              		SBCB	R0
022342: 105610              	L528:	SBCB	(R0)
022344: 105620              		SBCB	(R0)+
022346: 105630              		SBCB	@(R0)+
022350: 105640              		SBCB	-(R0)
022352: 105650              		SBCB	@-(R0)
022354: 105660 105670       		SBCB	105670(R0)
022360: 105700              		TSTB	R0
022362: 105710              		TSTB	(R0)
022364: 105720              		TSTB	(R0)+
022366: 105730              		TSTB	@(R0)+
022370: 105740              		TSTB	-(R0)
022372: 105750              		TSTB	@-(R0)
022374: 105760 105770       		TSTB	105770(R0)
022400: 106000              		RORB	R0
022402: 106010              		RORB	(R0)
022404: 106020              		RORB	(R0)+
022406: 106030              		RORB	@(R0)+
022410: 106040              		RORB	-(R0)
022412: 106050              		RORB	@-(R0)
022414: 106060 106070       		RORB	106070(R0)
022420: 106100              		ROLB	R0
022422: 106110              		ROLB	(R0)
022424: 106120              		ROLB	(R0)+
022426: 106130              		ROLB	@(R0)+
022430: 106140              		ROLB	-(R0)
022432: 106150              		ROLB	@-(R0)
022434: 106160 106170       		ROLB	106170(R0)
022440: 106200              		ASRB	R0
022442: 106210              		ASRB	(R0)
022444: 106220              		ASRB	(R0)+
022446: 106230              		ASRB	@(R0)+
022450: 106240              		ASRB	-(R0)
022452: 106250              		ASRB	@-(R0)
022454: 106260 106270       		ASRB	106270(R0)
022460: 106300              		ASLB	R0
022462: 106310              		ASLB	(R0)
022464: 106320              		ASLB	(R0)+
022466: 106330              		ASLB	@(R0)+
022470: 106340              		ASLB	-(R0)
022472: 106350              		ASLB	@-(R0)
022474: 106360 106370       		ASLB	106370(R0)
022500: 106400              		MTPS	R0
022502: 106410              		MTPS	(R0)
022504: 106420              		MTPS	(R0)+
022506: 106430              		MTPS	@(R0)+
022510: 106440              		MTPS	-(R0)
022512: 106450              		MTPS	@-(R0)
022514: 106460 106470       		MTPS	106470(R0)
022520: 106500              		.#106500
022522: 106510              		.#106510
022524: 106520              		.#106520
022526: 106530              		.#106530
022530: 106540              		.#106540
022532: 106550              		.#106550
022534: 106560              		.#106560
022536: 106570              		.#106570
022540: 106600              		.#106600
022542: 106610              		.#106610
022544: 106620              		.#106620
022546: 106630              		.#106630
022550: 106640              		.#106640
022552: 106650              		.#106650
022554: 106660              		.#106660
022556: 106670              		.#106670
022560: 106700              		MFPS	R0
022562: 106710              		MFPS	(R0)
022564: 106720              		MFPS	(R0)+
022566: 106730              		MFPS	@(R0)+
022570: 106740              		MFPS	-(R0)
022572: 106750              		MFPS	@-(R0)
022574: 106760 106770       		MFPS	106770(R0)
022600: 107000              		.#107000
022602: 107010              		.#107010
022604: 107020              		.#107020
022606: 107030              		.#107030
022610: 107040              		.#107040
022612: 107050              		.#107050
022614: 107060              		.#107060
022616: 107070              		.#107070
022620: 107100              		.#107100
022622: 107110              		.#107110
022624: 107120              		.#107120
022626: 107130              		.#107130
022630: 107140              		.#107140
022632: 107150              		.#107150
022634: 107160              		.#107160
022636: 107170              		.#107170
022640: 107200              		.#107200
022642: 107210              		.#107210
022644: 107220              		.#107220
022646: 107230              		.#107230
022650: 107240              		.#107240
022652: 107250              		.#107250
022654: 107260              		.#107260
022656: 107270              		.#107270
022660: 107300              		.#107300
022662: 107310              		.#107310
022664: 107320              		.#107320
022666: 107330              		.#107330
022670: 107340              		.#107340
022672: 107350              		.#107350
022674: 107360              		.#107360
022676: 107370              		.#107370
022700: 107400              		.#107400
022702: 107410              		.#107410
022704: 107420              		.#107420
022706: 107430              		.#107430
022710: 107440              		.#107440
022712: 107450              		.#107450
022714: 107460              		.#107460
022716: 107470              		.#107470
022720: 107500              		.#107500
022722: 107510              		.#107510
022724: 107520              		.#107520
022726: 107530              		.#107530
022730: 107540              		.#107540
022732: 107550              		.#107550
022734: 107560              		.#107560
022736: 107570              		.#107570
022740: 107600              		.#107600
022742: 107610              		.#107610
022744: 107620              		.#107620
022746: 107630              		.#107630
022750: 107640              		.#107640
022752: 107650              		.#107650
022754: 107660              		.#107660
022756: 107670              		.#107670
022760: 107700              		.#107700
022762: 107710              		.#107710
022764: 107720              		.#107720
022766: 107730              		.#107730
022770: 107740              		.#107740
022772: 107750              		.#107750
022774: 107760              		.#107760
022776: 107770              		.#107770
023000: 110000              		MOVB	R0,R0
023002: 110010              		MOVB	R0,(R0)
023004: 110020              		MOVB	R0,(R0)+
023006: 110030              		MOVB	R0,@(R0)+
023010: 110040              		MOVB	R0,-(R0)
023012: 110050              		MOVB	R0,@-(R0)
023014: 110060 110070       		MOVB	R0,110070(R0)
023020: 110100              		MOVB	R1,R0
023022: 110110              		MOVB	R1,(R0)
023024: 110120              		MOVB	R1,(R0)+
023026: 110130              		MOVB	R1,@(R0)+
023030: 110140              		MOVB	R1,-(R0)
023032: 110150              		MOVB	R1,@-(R0)
023034: 110160 110170       		MOVB	R1,110170(R0)
023040: 110200              		MOVB	R2,R0
023042: 110210              		MOVB	R2,(R0)
023044: 110220              		MOVB	R2,(R0)+
023046: 110230              		MOVB	R2,@(R0)+
023050: 110240              		MOVB	R2,-(R0)
023052: 110250              		MOVB	R2,@-(R0)
023054: 110260 110270       		MOVB	R2,110270(R0)
023060: 110300              		MOVB	R3,R0
023062: 110310              		MOVB	R3,(R0)
023064: 110320              		MOVB	R3,(R0)+
023066: 110330              		MOVB	R3,@(R0)+
023070: 110340              		MOVB	R3,-(R0)
023072: 110350              		MOVB	R3,@-(R0)
023074: 110360 110370       		MOVB	R3,110370(R0)
023100: 110400              		MOVB	R4,R0
023102: 110410              		MOVB	R4,(R0)
023104: 110420              		MOVB	R4,(R0)+
023106: 110430              		MOVB	R4,@(R0)+
023110: 110440              		MOVB	R4,-(R0)
023112: 110450              		MOVB	R4,@-(R0)
023114: 110460 110470       		MOVB	R4,110470(R0)
023120: 110500              		MOVB	R5,R0
023122: 110510              		MOVB	R5,(R0)
023124: 110520              		MOVB	R5,(R0)+
023126: 110530              		MOVB	R5,@(R0)+
023130: 110540              		MOVB	R5,-(R0)
023132: 110550              		MOVB	R5,@-(R0)
023134: 110560 110570       		MOVB	R5,110570(R0)
023140: 110600              		MOVB	SP,R0
023142: 110610              		MOVB	SP,(R0)
023144: 110620              		MOVB	SP,(R0)+
023146: 110630              		MOVB	SP,@(R0)+
023150: 110640              		MOVB	SP,-(R0)
023152: 110650              		MOVB	SP,@-(R0)
023154: 110660 110670       		MOVB	SP,110670(R0)
023160: 110700              		MOVB	PC,R0
023162: 110710              		MOVB	PC,(R0)
023164: 110720              		MOVB	PC,(R0)+
023166: 110730              		MOVB	PC,@(R0)+
023170: 110740              		MOVB	PC,-(R0)
023172: 110750              		MOVB	PC,@-(R0)
023174: 110760 110770       		MOVB	PC,110770(R0)
023200: 111000              		MOVB	(R0),R0
023202: 111010              		MOVB	(R0),(R0)
023204: 111020              		MOVB	(R0),(R0)+
023206: 111030              		MOVB	(R0),@(R0)+
023210: 111040              		MOVB	(R0),-(R0)
023212: 111050              		MOVB	(R0),@-(R0)
023214: 111060 111070       		MOVB	(R0),111070(R0)
023220: 111100              		MOVB	(R1),R0
023222: 111110              		MOVB	(R1),(R0)
023224: 111120              		MOVB	(R1),(R0)+
023226: 111130              		MOVB	(R1),@(R0)+
023230: 111140              		MOVB	(R1),-(R0)
023232: 111150              		MOVB	(R1),@-(R0)
023234: 111160 111170       		MOVB	(R1),111170(R0)
023240: 111200              		MOVB	(R2),R0
023242: 111210              		MOVB	(R2),(R0)
023244: 111220              		MOVB	(R2),(R0)+
023246: 111230              		MOVB	(R2),@(R0)+
023250: 111240              		MOVB	(R2),-(R0)
023252: 111250              		MOVB	(R2),@-(R0)
023254: 111260 111270       		MOVB	(R2),111270(R0)
023260: 111300              		MOVB	(R3),R0
023262: 111310              		MOVB	(R3),(R0)
023264: 111320              		MOVB	(R3),(R0)+
023266: 111330              		MOVB	(R3),@(R0)+
023270: 111340              		MOVB	(R3),-(R0)
023272: 111350              		MOVB	(R3),@-(R0)
023274: 111360 111370       		MOVB	(R3),111370(R0)
023300: 111400              		MOVB	(R4),R0
023302: 111410              		MOVB	(R4),(R0)
023304: 111420              		MOVB	(R4),(R0)+
023306: 111430              		MOVB	(R4),@(R0)+
023310: 111440              		MOVB	(R4),-(R0)
023312: 111450              		MOVB	(R4),@-(R0)
023314: 111460 111470       		MOVB	(R4),111470(R0)
023320: 111500              		MOVB	(R5),R0
023322: 111510              		MOVB	(R5),(R0)
023324: 111520              		MOVB	(R5),(R0)+
023326: 111530              		MOVB	(R5),@(R0)+
023330: 111540              		MOVB	(R5),-(R0)
023332: 111550              		MOVB	(R5),@-(R0)
023334: 111560 111570       		MOVB	(R5),111570(R0)
023340: 111600              		MOVB	(SP),R0
023342: 111610              		MOVB	(SP),(R0)
023344: 111620              		MOVB	(SP),(R0)+
023346: 111630              		MOVB	(SP),@(R0)+
023350: 111640              		MOVB	(SP),-(R0)
023352: 111650              		MOVB	(SP),@-(R0)
023354: 111660 111670       		MOVB	(SP),111670(R0)
023360: 111700              		MOVB	(PC),R0
023362: 111710              		MOVB	(PC),(R0)
023364: 111720              		MOVB	(PC),(R0)+
023366: 111730              		MOVB	(PC),@(R0)+
023370: 111740              		MOVB	(PC),-(R0)
023372: 111750              		MOVB	(PC),@-(R0)
023374: 111760 111770       		MOVB	(PC),111770(R0)
023400: 112000              		MOVB	(R0)+,R0
023402: 112010              		MOVB	(R0)+,(R0)
023404: 112020              		MOVB	(R0)+,(R0)+
023406: 112030              		MOVB	(R0)+,@(R0)+
023410: 112040              		MOVB	(R0)+,-(R0)
023412: 112050              		MOVB	(R0)+,@-(R0)
023414: 112060 112070       		MOVB	(R0)+,112070(R0)
023420: 112100              		MOVB	(R1)+,R0
023422: 112110              		MOVB	(R1)+,(R0)
023424: 112120              		MOVB	(R1)+,(R0)+
023426: 112130              		MOVB	(R1)+,@(R0)+
023430: 112140              		MOVB	(R1)+,-(R0)
023432: 112150              		MOVB	(R1)+,@-(R0)
023434: 112160 112170       		MOVB	(R1)+,112170(R0)
023440: 112200              		MOVB	(R2)+,R0
023442: 112210              		MOVB	(R2)+,(R0)
023444: 112220              		MOVB	(R2)+,(R0)+
023446: 112230              		MOVB	(R2)+,@(R0)+
023450: 112240              		MOVB	(R2)+,-(R0)
023452: 112250              		MOVB	(R2)+,@-(R0)
023454: 112260 112270       		MOVB	(R2)+,112270(R0)
023460: 112300              		MOVB	(R3)+,R0
023462: 112310              		MOVB	(R3)+,(R0)
023464: 112320              		MOVB	(R3)+,(R0)+
023466: 112330              		MOVB	(R3)+,@(R0)+
023470: 112340              		MOVB	(R3)+,-(R0)
023472: 112350              		MOVB	(R3)+,@-(R0)
023474: 112360 112370       		MOVB	(R3)+,112370(R0)
023500: 112400              		MOVB	(R4)+,R0
023502: 112410              		MOVB	(R4)+,(R0)
023504: 112420              		MOVB	(R4)+,(R0)+
023506: 112430              	L214:	MOVB	(R4)+,@(R0)+
023510: 112440              		MOVB	(R4)+,-(R0)
023512: 112450              		MOVB	(R4)+,@-(R0)
023514: 112460 112470       		MOVB	(R4)+,112470(R0)
023520: 112500              		MOVB	(R5)+,R0
023522: 112510              		MOVB	(R5)+,(R0)
023524: 112520              		MOVB	(R5)+,(R0)+
023526: 112530              		MOVB	(R5)+,@(R0)+
023530: 112540              		MOVB	(R5)+,-(R0)
023532: 112550              	L215:	MOVB	(R5)+,@-(R0)
023534: 112560 112570       		MOVB	(R5)+,112570(R0)
023540: 112600              		MOVB	(SP)+,R0
023542: 112610              		MOVB	(SP)+,(R0)
023544: 112620              		MOVB	(SP)+,(R0)+
023546: 112630              		MOVB	(SP)+,@(R0)+
023550: 112640              		MOVB	(SP)+,-(R0)
023552: 112650              		MOVB	(SP)+,@-(R0)
023554: 112660 112670       	L216:	MOVB	(SP)+,112670(R0)
023560: 112700 112710       		MOVB	#112710,R0
023564: 112720 112730       		MOVB	#112730,(R0)+
023570: 112740 112750       		MOVB	#112750,-(R0)
023574: 112760 112770 113000		MOVB	#112770,113000(R0)
023602: 113010              	L217:	MOVB	@(R0)+,(R0)
023604: 113020              		MOVB	@(R0)+,(R0)+
023606: 113030              		MOVB	@(R0)+,@(R0)+
023610: 113040              		MOVB	@(R0)+,-(R0)
023612: 113050              		MOVB	@(R0)+,@-(R0)
023614: 113060 113070       		MOVB	@(R0)+,113070(R0)
023620: 113100              		MOVB	@(R1)+,R0
023622: 113110              		MOVB	@(R1)+,(R0)
023624: 113120              		MOVB	@(R1)+,(R0)+
023626: 113130              		MOVB	@(R1)+,@(R0)+
023630: 113140              		MOVB	@(R1)+,-(R0)
023632: 113150              		MOVB	@(R1)+,@-(R0)
023634: 113160 113170       		MOVB	@(R1)+,113170(R0)
023640: 113200              		MOVB	@(R2)+,R0
023642: 113210              		MOVB	@(R2)+,(R0)
023644: 113220              		MOVB	@(R2)+,(R0)+
023646: 113230              		MOVB	@(R2)+,@(R0)+
023650: 113240              		MOVB	@(R2)+,-(R0)
023652: 113250              		MOVB	@(R2)+,@-(R0)
023654: 113260 113270       		MOVB	@(R2)+,113270(R0)
023660: 113300              		MOVB	@(R3)+,R0
023662: 113310              		MOVB	@(R3)+,(R0)
023664: 113320              		MOVB	@(R3)+,(R0)+
023666: 113330              		MOVB	@(R3)+,@(R0)+
023670: 113340              		MOVB	@(R3)+,-(R0)
023672: 113350              		MOVB	@(R3)+,@-(R0)
023674: 113360 113370       		MOVB	@(R3)+,113370(R0)
023700: 113400              		MOVB	@(R4)+,R0
023702: 113410              		MOVB	@(R4)+,(R0)
023704: 113420              		MOVB	@(R4)+,(R0)+
023706: 113430              		MOVB	@(R4)+,@(R0)+
023710: 113440              	L222:	MOVB	@(R4)+,-(R0)
023712: 113450              		MOVB	@(R4)+,@-(R0)
023714: 113460 113470       		MOVB	@(R4)+,113470(R0)
023720: 113500              		MOVB	@(R5)+,R0
023722: 113510              		MOVB	@(R5)+,(R0)
023724: 113520              		MOVB	@(R5)+,(R0)+
023726: 113530              		MOVB	@(R5)+,@(R0)+
023730: 113540              	L223:	MOVB	@(R5)+,-(R0)
023732: 113550              		MOVB	@(R5)+,@-(R0)
023734: 113560 113570       		MOVB	@(R5)+,113570(R0)
023740: 113600              		MOVB	@(SP)+,R0
023742: 113610              		MOVB	@(SP)+,(R0)
023744: 113620              		MOVB	@(SP)+,(R0)+
023746: 113630              		MOVB	@(SP)+,@(R0)+
023750: 113640              	L224:	MOVB	@(SP)+,-(R0)
023752: 113650              		MOVB	@(SP)+,@-(R0)
023754: 113660 113670       		MOVB	@(SP)+,113670(R0)
023760: 113700 113710       		MOVB	@#113710,R0
023764: 113720 113730       		MOVB	@#113730,(R0)+
023770: 113740 113750       	L225:	MOVB	@#113750,-(R0)
023774: 113760 113770 114000		MOVB	@#113770,114000(R0)
024002: 114010              		MOVB	-(R0),(R0)
024004: 114020              		MOVB	-(R0),(R0)+
024006: 114030              		MOVB	-(R0),@(R0)+
024010: 114040              		MOVB	-(R0),-(R0)
024012: 114050              		MOVB	-(R0),@-(R0)
024014: 114060 114070       		MOVB	-(R0),114070(R0)
024020: 114100              		MOVB	-(R1),R0
024022: 114110              		MOVB	-(R1),(R0)
024024: 114120              		MOVB	-(R1),(R0)+
024026: 114130              		MOVB	-(R1),@(R0)+
024030: 114140              		MOVB	-(R1),-(R0)
024032: 114150              		MOVB	-(R1),@-(R0)
024034: 114160 114170       		MOVB	-(R1),114170(R0)
024040: 114200              		MOVB	-(R2),R0
024042: 114210              		MOVB	-(R2),(R0)
024044: 114220              		MOVB	-(R2),(R0)+
024046: 114230              		MOVB	-(R2),@(R0)+
024050: 114240              		MOVB	-(R2),-(R0)
024052: 114250              		MOVB	-(R2),@-(R0)
024054: 114260 114270       		MOVB	-(R2),114270(R0)
024060: 114300              		MOVB	-(R3),R0
024062: 114310              		MOVB	-(R3),(R0)
024064: 114320              		MOVB	-(R3),(R0)+
024066: 114330              		MOVB	-(R3),@(R0)+
024070: 114340              		MOVB	-(R3),-(R0)
024072: 114350              		MOVB	-(R3),@-(R0)
024074: 114360 114370       		MOVB	-(R3),114370(R0)
024100: 114400              		MOVB	-(R4),R0
024102: 114410              		MOVB	-(R4),(R0)
024104: 114420              		MOVB	-(R4),(R0)+
024106: 114430              		MOVB	-(R4),@(R0)+
024110: 114440              		MOVB	-(R4),-(R0)
024112: 114450              		MOVB	-(R4),@-(R0)
024114: 114460 114470       		MOVB	-(R4),114470(R0)
024120: 114500              		MOVB	-(R5),R0
024122: 114510              		MOVB	-(R5),(R0)
024124: 114520              		MOVB	-(R5),(R0)+
024126: 114530              		MOVB	-(R5),@(R0)+
024130: 114540              		MOVB	-(R5),-(R0)
024132: 114550              		MOVB	-(R5),@-(R0)
024134: 114560 114570       		MOVB	-(R5),114570(R0)
024140: 114600              		MOVB	-(SP),R0
024142: 114610              		MOVB	-(SP),(R0)
024144: 114620              		MOVB	-(SP),(R0)+
024146: 114630              		MOVB	-(SP),@(R0)+
024150: 114640              		MOVB	-(SP),-(R0)
024152: 114650              		MOVB	-(SP),@-(R0)
024154: 114660 114670       		MOVB	-(SP),114670(R0)
024160: 114700              		MOVB	-(PC),R0
024162: 114710              		MOVB	-(PC),(R0)
024164: 114720              		MOVB	-(PC),(R0)+
024166: 114730              		MOVB	-(PC),@(R0)+
024170: 114740              		MOVB	-(PC),-(R0)
024172: 114750              		MOVB	-(PC),@-(R0)
024174: 114760 114770       		MOVB	-(PC),114770(R0)
024200: 115000              		MOVB	@-(R0),R0
024202: 115010              		MOVB	@-(R0),(R0)
024204: 115020              		MOVB	@-(R0),(R0)+
024206: 115030              		MOVB	@-(R0),@(R0)+
024210: 115040              		MOVB	@-(R0),-(R0)
024212: 115050              		MOVB	@-(R0),@-(R0)
024214: 115060 115070       		MOVB	@-(R0),115070(R0)
024220: 115100              		MOVB	@-(R1),R0
024222: 115110              		MOVB	@-(R1),(R0)
024224: 115120              		MOVB	@-(R1),(R0)+
024226: 115130              		MOVB	@-(R1),@(R0)+
024230: 115140              		MOVB	@-(R1),-(R0)
024232: 115150              		MOVB	@-(R1),@-(R0)
024234: 115160 115170       		MOVB	@-(R1),115170(R0)
024240: 115200              		MOVB	@-(R2),R0
024242: 115210              		MOVB	@-(R2),(R0)
024244: 115220              		MOVB	@-(R2),(R0)+
024246: 115230              		MOVB	@-(R2),@(R0)+
024250: 115240              		MOVB	@-(R2),-(R0)
024252: 115250              		MOVB	@-(R2),@-(R0)
024254: 115260 115270       		MOVB	@-(R2),115270(R0)
024260: 115300              		MOVB	@-(R3),R0
024262: 115310              		MOVB	@-(R3),(R0)
024264: 115320              		MOVB	@-(R3),(R0)+
024266: 115330              		MOVB	@-(R3),@(R0)+
024270: 115340              		MOVB	@-(R3),-(R0)
024272: 115350              		MOVB	@-(R3),@-(R0)
024274: 115360 115370       		MOVB	@-(R3),115370(R0)
024300: 115400              		MOVB	@-(R4),R0
024302: 115410              		MOVB	@-(R4),(R0)
024304: 115420              		MOVB	@-(R4),(R0)+
024306: 115430              		MOVB	@-(R4),@(R0)+
024310: 115440              		MOVB	@-(R4),-(R0)
024312: 115450              		MOVB	@-(R4),@-(R0)
024314: 115460 115470       		MOVB	@-(R4),115470(R0)
024320: 115500              		MOVB	@-(R5),R0
024322: 115510              		MOVB	@-(R5),(R0)
024324: 115520              		MOVB	@-(R5),(R0)+
024326: 115530              		MOVB	@-(R5),@(R0)+
024330: 115540              		MOVB	@-(R5),-(R0)
024332: 115550              		MOVB	@-(R5),@-(R0)
024334: 115560 115570       		MOVB	@-(R5),115570(R0)
024340: 115600              		MOVB	@-(SP),R0
024342: 115610              		MOVB	@-(SP),(R0)
024344: 115620              		MOVB	@-(SP),(R0)+
024346: 115630              		MOVB	@-(SP),@(R0)+
024350: 115640              		MOVB	@-(SP),-(R0)
024352: 115650              		MOVB	@-(SP),@-(R0)
024354: 115660 115670       		MOVB	@-(SP),115670(R0)
024360: 115700              		MOVB	@-(PC),R0
024362: 115710              		MOVB	@-(PC),(R0)
024364: 115720              		MOVB	@-(PC),(R0)+
024366: 115730              		MOVB	@-(PC),@(R0)+
024370: 115740              		MOVB	@-(PC),-(R0)
024372: 115750              		MOVB	@-(PC),@-(R0)
024374: 115760 115770       		MOVB	@-(PC),115770(R0)
024400: 116000 116010       		MOVB	116010(R0),R0
024404: 116020 116030       		MOVB	116030(R0),(R0)+
024410: 116040 116050       		MOVB	116050(R0),-(R0)
024414: 116060 116070 116100		MOVB	116070(R0),116100(R0)
024422: 116110 116120       		MOVB	116120(R1),(R0)
024426: 116130 116140       		MOVB	116140(R1),@(R0)+
024432: 116150 116160       		MOVB	116160(R1),@-(R0)
024436: 116170 116200 116210		MOVB	116200(R1),@116210(R0)
024444: 116220 116230       		MOVB	116230(R2),(R0)+
024450: 116240 116250       		MOVB	116250(R2),-(R0)
024454: 116260 116270 116300		MOVB	116270(R2),116300(R0)
024462: 116310 116320       		MOVB	116320(R3),(R0)
024466: 116330 116340       		MOVB	116340(R3),@(R0)+
024472: 116350 116360       		MOVB	116360(R3),@-(R0)
024476: 116370 116400 116410		MOVB	116400(R3),@116410(R0)
024504: 116420 116430       		MOVB	116430(R4),(R0)+
024510: 116440 116450       		MOVB	116450(R4),-(R0)
024514: 116460 116470 116500		MOVB	116470(R4),116500(R0)
024522: 116510 116520       		MOVB	116520(R5),(R0)
024526: 116530 116540       		MOVB	116540(R5),@(R0)+
024532: 116550 116560       		MOVB	116560(R5),@-(R0)
024536: 116570 116600 116610		MOVB	116600(R5),@116610(R0)
024544: 116620 116630       		MOVB	116630(SP),(R0)+
024550: 116640 116650       		MOVB	116650(SP),-(R0)
024554: 116660 116670 116700		MOVB	116670(SP),116700(R0)
024562: 116710 116720       		MOVB	143506,(R0)
024566: 116730 116740       		MOVB	143532,@(R0)+
024572: 116750 116760       		MOVB	143556,@-(R0)
024576: 116770 117000 117010		MOVB	143602,@117010(R0)
024604: 117020 117030       		MOVB	@117030(R0),(R0)+
024610: 117040 117050       		MOVB	@117050(R0),-(R0)
024614: 117060 117070 117100		MOVB	@117070(R0),117100(R0)
024622: 117110 117120       		MOVB	@117120(R1),(R0)
024626: 117130 117140       		MOVB	@117140(R1),@(R0)+
024632: 117150 117160       		MOVB	@117160(R1),@-(R0)
024636: 117170 117200 117210		MOVB	@117200(R1),@117210(R0)
024644: 117220 117230       		MOVB	@117230(R2),(R0)+
024650: 117240 117250       		MOVB	@117250(R2),-(R0)
024654: 117260 117270 117300		MOVB	@117270(R2),117300(R0)
024662: 117310 117320       		MOVB	@117320(R3),(R0)
024666: 117330 117340       		MOVB	@117340(R3),@(R0)+
024672: 117350 117360       		MOVB	@117360(R3),@-(R0)
024676: 117370 117400 117410		MOVB	@117400(R3),@117410(R0)
024704: 117420 117430       	L218:	MOVB	@117430(R4),(R0)+
024710: 117440 117450       		MOVB	@117450(R4),-(R0)
024714: 117460 117470 117500		MOVB	@117470(R4),117500(R0)
024722: 117510 117520       		MOVB	@117520(R5),(R0)
024726: 117530 117540       		MOVB	@117540(R5),@(R0)+
024732: 117550 117560       	L219:	MOVB	@117560(R5),@-(R0)
024736: 117570 117600 117610		MOVB	@117600(R5),@117610(R0)
024744: 117620 117630       		MOVB	@117630(SP),(R0)+
024750: 117640 117650       		MOVB	@117650(SP),-(R0)
024754: 117660 117670 117700	L220:	MOVB	@117670(SP),117700(R0)
024762: 117710 117720       		MOVB	@144706,(R0)
024766: 117730 117740       		MOVB	@144732,@(R0)+
024772: 117750 117760       		MOVB	@144756,@-(R0)
024776: 117770 120000 120010	L221:	MOVB	@145002,@120010(R0)
025004: 120020              		CMPB	R0,(R0)+
025006: 120030              		CMPB	R0,@(R0)+
025010: 120040              		CMPB	R0,-(R0)
025012: 120050              		CMPB	R0,@-(R0)
025014: 120060 120070       		CMPB	R0,120070(R0)
025020: 120100              		CMPB	R1,R0
025022: 120110              		CMPB	R1,(R0)
025024: 120120              		CMPB	R1,(R0)+
025026: 120130              		CMPB	R1,@(R0)+
025030: 120140              		CMPB	R1,-(R0)
025032: 120150              		CMPB	R1,@-(R0)
025034: 120160 120170       		CMPB	R1,120170(R0)
025040: 120200              		CMPB	R2,R0
025042: 120210              		CMPB	R2,(R0)
025044: 120220              		CMPB	R2,(R0)+
025046: 120230              		CMPB	R2,@(R0)+
025050: 120240              		CMPB	R2,-(R0)
025052: 120250              		CMPB	R2,@-(R0)
025054: 120260 120270       		CMPB	R2,120270(R0)
025060: 120300              		CMPB	R3,R0
025062: 120310              		CMPB	R3,(R0)
025064: 120320              		CMPB	R3,(R0)+
025066: 120330              		CMPB	R3,@(R0)+
025070: 120340              		CMPB	R3,-(R0)
025072: 120350              		CMPB	R3,@-(R0)
025074: 120360 120370       		CMPB	R3,120370(R0)
025100: 120400              		CMPB	R4,R0
025102: 120410              		CMPB	R4,(R0)
025104: 120420              		CMPB	R4,(R0)+
025106: 120430              		CMPB	R4,@(R0)+
025110: 120440              		CMPB	R4,-(R0)
025112: 120450              		CMPB	R4,@-(R0)
025114: 120460 120470       		CMPB	R4,120470(R0)
025120: 120500              		CMPB	R5,R0
025122: 120510              		CMPB	R5,(R0)
025124: 120520              		CMPB	R5,(R0)+
025126: 120530              		CMPB	R5,@(R0)+
025130: 120540              		CMPB	R5,-(R0)
025132: 120550              		CMPB	R5,@-(R0)
025134: 120560 120570       		CMPB	R5,120570(R0)
025140: 120600              		CMPB	SP,R0
025142: 120610              		CMPB	SP,(R0)
025144: 120620              		CMPB	SP,(R0)+
025146: 120630              		CMPB	SP,@(R0)+
025150: 120640              		CMPB	SP,-(R0)
025152: 120650              		CMPB	SP,@-(R0)
025154: 120660 120670       		CMPB	SP,120670(R0)
025160: 120700              		CMPB	PC,R0
025162: 120710              		CMPB	PC,(R0)
025164: 120720              		CMPB	PC,(R0)+
025166: 120730              		CMPB	PC,@(R0)+
025170: 120740              		CMPB	PC,-(R0)
025172: 120750              		CMPB	PC,@-(R0)
025174: 120760 120770       		CMPB	PC,120770(R0)
025200: 121000              		CMPB	(R0),R0
025202: 121010              		CMPB	(R0),(R0)
025204: 121020              		CMPB	(R0),(R0)+
025206: 121030              		CMPB	(R0),@(R0)+
025210: 121040              		CMPB	(R0),-(R0)
025212: 121050              		CMPB	(R0),@-(R0)
025214: 121060 121070       		CMPB	(R0),121070(R0)
025220: 121100              		CMPB	(R1),R0
025222: 121110              		CMPB	(R1),(R0)
025224: 121120              		CMPB	(R1),(R0)+
025226: 121130              		CMPB	(R1),@(R0)+
025230: 121140              		CMPB	(R1),-(R0)
025232: 121150              		CMPB	(R1),@-(R0)
025234: 121160 121170       		CMPB	(R1),121170(R0)
025240: 121200              		CMPB	(R2),R0
025242: 121210              		CMPB	(R2),(R0)
025244: 121220              		CMPB	(R2),(R0)+
025246: 121230              		CMPB	(R2),@(R0)+
025250: 121240              		CMPB	(R2),-(R0)
025252: 121250              		CMPB	(R2),@-(R0)
025254: 121260 121270       		CMPB	(R2),121270(R0)
025260: 121300              		CMPB	(R3),R0
025262: 121310              		CMPB	(R3),(R0)
025264: 121320              		CMPB	(R3),(R0)+
025266: 121330              		CMPB	(R3),@(R0)+
025270: 121340              		CMPB	(R3),-(R0)
025272: 121350              		CMPB	(R3),@-(R0)
025274: 121360 121370       		CMPB	(R3),121370(R0)
025300: 121400              		CMPB	(R4),R0
025302: 121410              		CMPB	(R4),(R0)
025304: 121420              		CMPB	(R4),(R0)+
025306: 121430              		CMPB	(R4),@(R0)+
025310: 121440              		CMPB	(R4),-(R0)
025312: 121450              		CMPB	(R4),@-(R0)
025314: 121460 121470       		CMPB	(R4),121470(R0)
025320: 121500              		CMPB	(R5),R0
025322: 121510              		CMPB	(R5),(R0)
025324: 121520              		CMPB	(R5),(R0)+
025326: 121530              		CMPB	(R5),@(R0)+
025330: 121540              		CMPB	(R5),-(R0)
025332: 121550              		CMPB	(R5),@-(R0)
025334: 121560 121570       		CMPB	(R5),121570(R0)
025340: 121600              		CMPB	(SP),R0
025342: 121610              		CMPB	(SP),(R0)
025344: 121620              		CMPB	(SP),(R0)+
025346: 121630              		CMPB	(SP),@(R0)+
025350: 121640              		CMPB	(SP),-(R0)
025352: 121650              		CMPB	(SP),@-(R0)
025354: 121660 121670       		CMPB	(SP),121670(R0)
025360: 121700              		CMPB	(PC),R0
025362: 121710              		CMPB	(PC),(R0)
025364: 121720              		CMPB	(PC),(R0)+
025366: 121730              		CMPB	(PC),@(R0)+
025370: 121740              		CMPB	(PC),-(R0)
025372: 121750              		CMPB	(PC),@-(R0)
025374: 121760 121770       		CMPB	(PC),121770(R0)
025400: 122000              		CMPB	(R0)+,R0
025402: 122010              		CMPB	(R0)+,(R0)
025404: 122020              		CMPB	(R0)+,(R0)+
025406: 122030              		CMPB	(R0)+,@(R0)+
025410: 122040              		CMPB	(R0)+,-(R0)
025412: 122050              		CMPB	(R0)+,@-(R0)
025414: 122060 122070       		CMPB	(R0)+,122070(R0)
025420: 122100              		CMPB	(R1)+,R0
025422: 122110              		CMPB	(R1)+,(R0)
025424: 122120              		CMPB	(R1)+,(R0)+
025426: 122130              		CMPB	(R1)+,@(R0)+
025430: 122140              		CMPB	(R1)+,-(R0)
025432: 122150              		CMPB	(R1)+,@-(R0)
025434: 122160 122170       		CMPB	(R1)+,122170(R0)
025440: 122200              		CMPB	(R2)+,R0
025442: 122210              		CMPB	(R2)+,(R0)
025444: 122220              		CMPB	(R2)+,(R0)+
025446: 122230              		CMPB	(R2)+,@(R0)+
025450: 122240              		CMPB	(R2)+,-(R0)
025452: 122250              		CMPB	(R2)+,@-(R0)
025454: 122260 122270       		CMPB	(R2)+,122270(R0)
025460: 122300              		CMPB	(R3)+,R0
025462: 122310              		CMPB	(R3)+,(R0)
025464: 122320              		CMPB	(R3)+,(R0)+
025466: 122330              		CMPB	(R3)+,@(R0)+
025470: 122340              		CMPB	(R3)+,-(R0)
025472: 122350              		CMPB	(R3)+,@-(R0)
025474: 122360 122370       		CMPB	(R3)+,122370(R0)
025500: 122400              		CMPB	(R4)+,R0
025502: 122410              		CMPB	(R4)+,(R0)
025504: 122420              		CMPB	(R4)+,(R0)+
025506: 122430              	L557:	CMPB	(R4)+,@(R0)+
025510: 122440              		CMPB	(R4)+,-(R0)
025512: 122450              		CMPB	(R4)+,@-(R0)
025514: 122460 122470       		CMPB	(R4)+,122470(R0)
025520: 122500              		CMPB	(R5)+,R0
025522: 122510              		CMPB	(R5)+,(R0)
025524: 122520              		CMPB	(R5)+,(R0)+
025526: 122530              		CMPB	(R5)+,@(R0)+
025530: 122540              		CMPB	(R5)+,-(R0)
025532: 122550              	L558:	CMPB	(R5)+,@-(R0)
025534: 122560 122570       		CMPB	(R5)+,122570(R0)
025540: 122600              		CMPB	(SP)+,R0
025542: 122610              		CMPB	(SP)+,(R0)
025544: 122620              		CMPB	(SP)+,(R0)+
025546: 122630              		CMPB	(SP)+,@(R0)+
025550: 122640              		CMPB	(SP)+,-(R0)
025552: 122650              		CMPB	(SP)+,@-(R0)
025554: 122660 122670       	L559:	CMPB	(SP)+,122670(R0)
025560: 122700 122710       		CMPB	#122710,R0
025564: 122720 122730       		CMPB	#122730,(R0)+
025570: 122740 122750       		CMPB	#122750,-(R0)
025574: 122760 122770 123000		CMPB	#122770,123000(R0)
025602: 123010              	L560:	CMPB	@(R0)+,(R0)
025604: 123020              		CMPB	@(R0)+,(R0)+
025606: 123030              		CMPB	@(R0)+,@(R0)+
025610: 123040              		CMPB	@(R0)+,-(R0)
025612: 123050              		CMPB	@(R0)+,@-(R0)
025614: 123060 123070       		CMPB	@(R0)+,123070(R0)
025620: 123100              		CMPB	@(R1)+,R0
025622: 123110              		CMPB	@(R1)+,(R0)
025624: 123120              		CMPB	@(R1)+,(R0)+
025626: 123130              		CMPB	@(R1)+,@(R0)+
025630: 123140              		CMPB	@(R1)+,-(R0)
025632: 123150              		CMPB	@(R1)+,@-(R0)
025634: 123160 123170       		CMPB	@(R1)+,123170(R0)
025640: 123200              		CMPB	@(R2)+,R0
025642: 123210              		CMPB	@(R2)+,(R0)
025644: 123220              		CMPB	@(R2)+,(R0)+
025646: 123230              		CMPB	@(R2)+,@(R0)+
025650: 123240              		CMPB	@(R2)+,-(R0)
025652: 123250              		CMPB	@(R2)+,@-(R0)
025654: 123260 123270       		CMPB	@(R2)+,123270(R0)
025660: 123300              		CMPB	@(R3)+,R0
025662: 123310              		CMPB	@(R3)+,(R0)
025664: 123320              		CMPB	@(R3)+,(R0)+
025666: 123330              		CMPB	@(R3)+,@(R0)+
025670: 123340              		CMPB	@(R3)+,-(R0)
025672: 123350              		CMPB	@(R3)+,@-(R0)
025674: 123360 123370       		CMPB	@(R3)+,123370(R0)
025700: 123400              		CMPB	@(R4)+,R0
025702: 123410              		CMPB	@(R4)+,(R0)
025704: 123420              		CMPB	@(R4)+,(R0)+
025706: 123430              		CMPB	@(R4)+,@(R0)+
025710: 123440              		CMPB	@(R4)+,-(R0)
025712: 123450              		CMPB	@(R4)+,@-(R0)
025714: 123460 123470       		CMPB	@(R4)+,123470(R0)
025720: 123500              		CMPB	@(R5)+,R0
025722: 123510              		CMPB	@(R5)+,(R0)
025724: 123520              		CMPB	@(R5)+,(R0)+
025726: 123530              		CMPB	@(R5)+,@(R0)+
025730: 123540              		CMPB	@(R5)+,-(R0)
025732: 123550              		CMPB	@(R5)+,@-(R0)
025734: 123560 123570       		CMPB	@(R5)+,123570(R0)
025740: 123600              		CMPB	@(SP)+,R0
025742: 123610              		CMPB	@(SP)+,(R0)
025744: 123620              		CMPB	@(SP)+,(R0)+
025746: 123630              		CMPB	@(SP)+,@(R0)+
025750: 123640              		CMPB	@(SP)+,-(R0)
025752: 123650              		CMPB	@(SP)+,@-(R0)
025754: 123660 123670       		CMPB	@(SP)+,123670(R0)
025760: 123700 123710       		CMPB	@#123710,R0
025764: 123720 123730       		CMPB	@#123730,(R0)+
025770: 123740 123750       		CMPB	@#123750,-(R0)
025774: 123760 123770 124000		CMPB	@#123770,124000(R0)
026002: 124010              		CMPB	-(R0),(R0)
026004: 124020              		CMPB	-(R0),(R0)+
026006: 124030              		CMPB	-(R0),@(R0)+
026010: 124040              		CMPB	-(R0),-(R0)
026012: 124050              		CMPB	-(R0),@-(R0)
026014: 124060 124070       		CMPB	-(R0),124070(R0)
026020: 124100              		CMPB	-(R1),R0
026022: 124110              		CMPB	-(R1),(R0)
026024: 124120              		CMPB	-(R1),(R0)+
026026: 124130              		CMPB	-(R1),@(R0)+
026030: 124140              		CMPB	-(R1),-(R0)
026032: 124150              		CMPB	-(R1),@-(R0)
026034: 124160 124170       		CMPB	-(R1),124170(R0)
026040: 124200              		CMPB	-(R2),R0
026042: 124210              		CMPB	-(R2),(R0)
026044: 124220              		CMPB	-(R2),(R0)+
026046: 124230              		CMPB	-(R2),@(R0)+
026050: 124240              		CMPB	-(R2),-(R0)
026052: 124250              		CMPB	-(R2),@-(R0)
026054: 124260 124270       		CMPB	-(R2),124270(R0)
026060: 124300              		CMPB	-(R3),R0
026062: 124310              		CMPB	-(R3),(R0)
026064: 124320              		CMPB	-(R3),(R0)+
026066: 124330              		CMPB	-(R3),@(R0)+
026070: 124340              		CMPB	-(R3),-(R0)
026072: 124350              		CMPB	-(R3),@-(R0)
026074: 124360 124370       		CMPB	-(R3),124370(R0)
026100: 124400              		CMPB	-(R4),R0
026102: 124410              		CMPB	-(R4),(R0)
026104: 124420              		CMPB	-(R4),(R0)+
026106: 124430              		CMPB	-(R4),@(R0)+
026110: 124440              		CMPB	-(R4),-(R0)
026112: 124450              		CMPB	-(R4),@-(R0)
026114: 124460 124470       		CMPB	-(R4),124470(R0)
026120: 124500              		CMPB	-(R5),R0
026122: 124510              		CMPB	-(R5),(R0)
026124: 124520              		CMPB	-(R5),(R0)+
026126: 124530              		CMPB	-(R5),@(R0)+
026130: 124540              		CMPB	-(R5),-(R0)
026132: 124550              		CMPB	-(R5),@-(R0)
026134: 124560 124570       		CMPB	-(R5),124570(R0)
026140: 124600              		CMPB	-(SP),R0
026142: 124610              		CMPB	-(SP),(R0)
026144: 124620              		CMPB	-(SP),(R0)+
026146: 124630              		CMPB	-(SP),@(R0)+
026150: 124640              		CMPB	-(SP),-(R0)
026152: 124650              		CMPB	-(SP),@-(R0)
026154: 124660 124670       		CMPB	-(SP),124670(R0)
026160: 124700              		CMPB	-(PC),R0
026162: 124710              		CMPB	-(PC),(R0)
026164: 124720              		CMPB	-(PC),(R0)+
026166: 124730              		CMPB	-(PC),@(R0)+
026170: 124740              		CMPB	-(PC),-(R0)
026172: 124750              		CMPB	-(PC),@-(R0)
026174: 124760 124770       		CMPB	-(PC),124770(R0)
026200: 125000              		CMPB	@-(R0),R0
026202: 125010              		CMPB	@-(R0),(R0)
026204: 125020              		CMPB	@-(R0),(R0)+
026206: 125030              		CMPB	@-(R0),@(R0)+
026210: 125040              		CMPB	@-(R0),-(R0)
026212: 125050              		CMPB	@-(R0),@-(R0)
026214: 125060 125070       		CMPB	@-(R0),125070(R0)
026220: 125100              		CMPB	@-(R1),R0
026222: 125110              		CMPB	@-(R1),(R0)
026224: 125120              		CMPB	@-(R1),(R0)+
026226: 125130              		CMPB	@-(R1),@(R0)+
026230: 125140              		CMPB	@-(R1),-(R0)
026232: 125150              		CMPB	@-(R1),@-(R0)
026234: 125160 125170       		CMPB	@-(R1),125170(R0)
026240: 125200              		CMPB	@-(R2),R0
026242: 125210              		CMPB	@-(R2),(R0)
026244: 125220              		CMPB	@-(R2),(R0)+
026246: 125230              		CMPB	@-(R2),@(R0)+
026250: 125240              		CMPB	@-(R2),-(R0)
026252: 125250              		CMPB	@-(R2),@-(R0)
026254: 125260 125270       		CMPB	@-(R2),125270(R0)
026260: 125300              		CMPB	@-(R3),R0
026262: 125310              		CMPB	@-(R3),(R0)
026264: 125320              		CMPB	@-(R3),(R0)+
026266: 125330              		CMPB	@-(R3),@(R0)+
026270: 125340              		CMPB	@-(R3),-(R0)
026272: 125350              		CMPB	@-(R3),@-(R0)
026274: 125360 125370       		CMPB	@-(R3),125370(R0)
026300: 125400              		CMPB	@-(R4),R0
026302: 125410              		CMPB	@-(R4),(R0)
026304: 125420              		CMPB	@-(R4),(R0)+
026306: 125430              		CMPB	@-(R4),@(R0)+
026310: 125440              		CMPB	@-(R4),-(R0)
026312: 125450              		CMPB	@-(R4),@-(R0)
026314: 125460 125470       		CMPB	@-(R4),125470(R0)
026320: 125500              		CMPB	@-(R5),R0
026322: 125510              		CMPB	@-(R5),(R0)
026324: 125520              		CMPB	@-(R5),(R0)+
026326: 125530              		CMPB	@-(R5),@(R0)+
026330: 125540              		CMPB	@-(R5),-(R0)
026332: 125550              		CMPB	@-(R5),@-(R0)
026334: 125560 125570       		CMPB	@-(R5),125570(R0)
026340: 125600              		CMPB	@-(SP),R0
026342: 125610              		CMPB	@-(SP),(R0)
026344: 125620              		CMPB	@-(SP),(R0)+
026346: 125630              		CMPB	@-(SP),@(R0)+
026350: 125640              		CMPB	@-(SP),-(R0)
026352: 125650              		CMPB	@-(SP),@-(R0)
026354: 125660 125670       		CMPB	@-(SP),125670(R0)
026360: 125700              		CMPB	@-(PC),R0
026362: 125710              		CMPB	@-(PC),(R0)
026364: 125720              		CMPB	@-(PC),(R0)+
026366: 125730              		CMPB	@-(PC),@(R0)+
026370: 125740              		CMPB	@-(PC),-(R0)
026372: 125750              		CMPB	@-(PC),@-(R0)
026374: 125760 125770       		CMPB	@-(PC),125770(R0)
026400: 126000 126010       		CMPB	126010(R0),R0
026404: 126020 126030       		CMPB	126030(R0),(R0)+
026410: 126040 126050       		CMPB	126050(R0),-(R0)
026414: 126060 126070 126100		CMPB	126070(R0),126100(R0)
026422: 126110 126120       		CMPB	126120(R1),(R0)
026426: 126130 126140       		CMPB	126140(R1),@(R0)+
026432: 126150 126160       		CMPB	126160(R1),@-(R0)
026436: 126170 126200 126210		CMPB	126200(R1),@126210(R0)
026444: 126220 126230       		CMPB	126230(R2),(R0)+
026450: 126240 126250       		CMPB	126250(R2),-(R0)
026454: 126260 126270 126300		CMPB	126270(R2),126300(R0)
026462: 126310 126320       		CMPB	126320(R3),(R0)
026466: 126330 126340       		CMPB	126340(R3),@(R0)+
026472: 126350 126360       		CMPB	126360(R3),@-(R0)
026476: 126370 126400 126410		CMPB	126400(R3),@126410(R0)
026504: 126420 126430       		CMPB	126430(R4),(R0)+
026510: 126440 126450       		CMPB	126450(R4),-(R0)
026514: 126460 126470 126500		CMPB	126470(R4),126500(R0)
026522: 126510 126520       		CMPB	126520(R5),(R0)
026526: 126530 126540       		CMPB	126540(R5),@(R0)+
026532: 126550 126560       		CMPB	126560(R5),@-(R0)
026536: 126570 126600 126610		CMPB	126600(R5),@126610(R0)
026544: 126620 126630       		CMPB	126630(SP),(R0)+
026550: 126640 126650       		CMPB	126650(SP),-(R0)
026554: 126660 126670 126700		CMPB	126670(SP),126700(R0)
026562: 126710 126720       		CMPB	155506,(R0)
026566: 126730 126740       		CMPB	155532,@(R0)+
026572: 126750 126760       		CMPB	155556,@-(R0)
026576: 126770 127000 127010		CMPB	155602,@127010(R0)
026604: 127020 127030       		CMPB	@127030(R0),(R0)+
026610: 127040 127050       		CMPB	@127050(R0),-(R0)
026614: 127060 127070 127100		CMPB	@127070(R0),127100(R0)
026622: 127110 127120       		CMPB	@127120(R1),(R0)
026626: 127130 127140       		CMPB	@127140(R1),@(R0)+
026632: 127150 127160       		CMPB	@127160(R1),@-(R0)
026636: 127170 127200 127210		CMPB	@127200(R1),@127210(R0)
026644: 127220 127230       		CMPB	@127230(R2),(R0)+
026650: 127240 127250       		CMPB	@127250(R2),-(R0)
026654: 127260 127270 127300		CMPB	@127270(R2),127300(R0)
026662: 127310 127320       		CMPB	@127320(R3),(R0)
026666: 127330 127340       		CMPB	@127340(R3),@(R0)+
026672: 127350 127360       		CMPB	@127360(R3),@-(R0)
026676: 127370 127400 127410		CMPB	@127400(R3),@127410(R0)
026704: 127420 127430       	L561:	CMPB	@127430(R4),(R0)+
026710: 127440 127450       		CMPB	@127450(R4),-(R0)
026714: 127460 127470 127500		CMPB	@127470(R4),127500(R0)
026722: 127510 127520       		CMPB	@127520(R5),(R0)
026726: 127530 127540       		CMPB	@127540(R5),@(R0)+
026732: 127550 127560       	L562:	CMPB	@127560(R5),@-(R0)
026736: 127570 127600 127610		CMPB	@127600(R5),@127610(R0)
026744: 127620 127630       		CMPB	@127630(SP),(R0)+
026750: 127640 127650       		CMPB	@127650(SP),-(R0)
026754: 127660 127670 127700	L563:	CMPB	@127670(SP),127700(R0)
026762: 127710 127720       		CMPB	@156706,(R0)
026766: 127730 127740       		CMPB	@156732,@(R0)+
026772: 127750 127760       		CMPB	@156756,@-(R0)
026776: 127770 130000 130010	L564:	CMPB	@157002,@130010(R0)
027004: 130020              		BITB	R0,(R0)+
027006: 130030              		BITB	R0,@(R0)+
027010: 130040              		BITB	R0,-(R0)
027012: 130050              		BITB	R0,@-(R0)
027014: 130060 130070       		BITB	R0,130070(R0)
027020: 130100              		BITB	R1,R0
027022: 130110              		BITB	R1,(R0)
027024: 130120              		BITB	R1,(R0)+
027026: 130130              		BITB	R1,@(R0)+
027030: 130140              		BITB	R1,-(R0)
027032: 130150              		BITB	R1,@-(R0)
027034: 130160 130170       		BITB	R1,130170(R0)
027040: 130200              		BITB	R2,R0
027042: 130210              		BITB	R2,(R0)
027044: 130220              		BITB	R2,(R0)+
027046: 130230              		BITB	R2,@(R0)+
027050: 130240              		BITB	R2,-(R0)
027052: 130250              		BITB	R2,@-(R0)
027054: 130260 130270       		BITB	R2,130270(R0)
027060: 130300              		BITB	R3,R0
027062: 130310              		BITB	R3,(R0)
027064: 130320              		BITB	R3,(R0)+
027066: 130330              		BITB	R3,@(R0)+
027070: 130340              		BITB	R3,-(R0)
027072: 130350              		BITB	R3,@-(R0)
027074: 130360 130370       		BITB	R3,130370(R0)
027100: 130400              		BITB	R4,R0
027102: 130410              		BITB	R4,(R0)
027104: 130420              		BITB	R4,(R0)+
027106: 130430              		BITB	R4,@(R0)+
027110: 130440              		BITB	R4,-(R0)
027112: 130450              		BITB	R4,@-(R0)
027114: 130460 130470       		BITB	R4,130470(R0)
027120: 130500              		BITB	R5,R0
027122: 130510              		BITB	R5,(R0)
027124: 130520              		BITB	R5,(R0)+
027126: 130530              		BITB	R5,@(R0)+
027130: 130540              		BITB	R5,-(R0)
027132: 130550              		BITB	R5,@-(R0)
027134: 130560 130570       		BITB	R5,130570(R0)
027140: 130600              		BITB	SP,R0
027142: 130610              		BITB	SP,(R0)
027144: 130620              		BITB	SP,(R0)+
027146: 130630              		BITB	SP,@(R0)+
027150: 130640              		BITB	SP,-(R0)
027152: 130650              		BITB	SP,@-(R0)
027154: 130660 130670       		BITB	SP,130670(R0)
027160: 130700              		BITB	PC,R0
027162: 130710              		BITB	PC,(R0)
027164: 130720              		BITB	PC,(R0)+
027166: 130730              		BITB	PC,@(R0)+
027170: 130740              		BITB	PC,-(R0)
027172: 130750              		BITB	PC,@-(R0)
027174: 130760 130770       		BITB	PC,130770(R0)
027200: 131000              		BITB	(R0),R0
027202: 131010              		BITB	(R0),(R0)
027204: 131020              		BITB	(R0),(R0)+
027206: 131030              		BITB	(R0),@(R0)+
027210: 131040              		BITB	(R0),-(R0)
027212: 131050              		BITB	(R0),@-(R0)
027214: 131060 131070       		BITB	(R0),131070(R0)
027220: 131100              		BITB	(R1),R0
027222: 131110              		BITB	(R1),(R0)
027224: 131120              		BITB	(R1),(R0)+
027226: 131130              		BITB	(R1),@(R0)+
027230: 131140              		BITB	(R1),-(R0)
027232: 131150              		BITB	(R1),@-(R0)
027234: 131160 131170       		BITB	(R1),131170(R0)
027240: 131200              		BITB	(R2),R0
027242: 131210              		BITB	(R2),(R0)
027244: 131220              		BITB	(R2),(R0)+
027246: 131230              		BITB	(R2),@(R0)+
027250: 131240              		BITB	(R2),-(R0)
027252: 131250              		BITB	(R2),@-(R0)
027254: 131260 131270       		BITB	(R2),131270(R0)
027260: 131300              		BITB	(R3),R0
027262: 131310              		BITB	(R3),(R0)
027264: 131320              		BITB	(R3),(R0)+
027266: 131330              		BITB	(R3),@(R0)+
027270: 131340              		BITB	(R3),-(R0)
027272: 131350              		BITB	(R3),@-(R0)
027274: 131360 131370       		BITB	(R3),131370(R0)
027300: 131400              		BITB	(R4),R0
027302: 131410              		BITB	(R4),(R0)
027304: 131420              		BITB	(R4),(R0)+
027306: 131430              		BITB	(R4),@(R0)+
027310: 131440              		BITB	(R4),-(R0)
027312: 131450              		BITB	(R4),@-(R0)
027314: 131460 131470       		BITB	(R4),131470(R0)
027320: 131500              		BITB	(R5),R0
027322: 131510              		BITB	(R5),(R0)
027324: 131520              		BITB	(R5),(R0)+
027326: 131530              		BITB	(R5),@(R0)+
027330: 131540              		BITB	(R5),-(R0)
027332: 131550              		BITB	(R5),@-(R0)
027334: 131560 131570       		BITB	(R5),131570(R0)
027340: 131600              		BITB	(SP),R0
027342: 131610              		BITB	(SP),(R0)
027344: 131620              		BITB	(SP),(R0)+
027346: 131630              		BITB	(SP),@(R0)+
027350: 131640              		BITB	(SP),-(R0)
027352: 131650              		BITB	(SP),@-(R0)
027354: 131660 131670       		BITB	(SP),131670(R0)
027360: 131700              		BITB	(PC),R0
027362: 131710              		BITB	(PC),(R0)
027364: 131720              		BITB	(PC),(R0)+
027366: 131730              		BITB	(PC),@(R0)+
027370: 131740              		BITB	(PC),-(R0)
027372: 131750              		BITB	(PC),@-(R0)
027374: 131760 131770       		BITB	(PC),131770(R0)
027400: 132000              		BITB	(R0)+,R0
027402: 132010              		BITB	(R0)+,(R0)
027404: 132020              		BITB	(R0)+,(R0)+
027406: 132030              		BITB	(R0)+,@(R0)+
027410: 132040              		BITB	(R0)+,-(R0)
027412: 132050              		BITB	(R0)+,@-(R0)
027414: 132060 132070       		BITB	(R0)+,132070(R0)
027420: 132100              		BITB	(R1)+,R0
027422: 132110              		BITB	(R1)+,(R0)
027424: 132120              		BITB	(R1)+,(R0)+
027426: 132130              		BITB	(R1)+,@(R0)+
027430: 132140              		BITB	(R1)+,-(R0)
027432: 132150              		BITB	(R1)+,@-(R0)
027434: 132160 132170       		BITB	(R1)+,132170(R0)
027440: 132200              		BITB	(R2)+,R0
027442: 132210              		BITB	(R2)+,(R0)
027444: 132220              		BITB	(R2)+,(R0)+
027446: 132230              		BITB	(R2)+,@(R0)+
027450: 132240              		BITB	(R2)+,-(R0)
027452: 132250              		BITB	(R2)+,@-(R0)
027454: 132260 132270       		BITB	(R2)+,132270(R0)
027460: 132300              		BITB	(R3)+,R0
027462: 132310              		BITB	(R3)+,(R0)
027464: 132320              		BITB	(R3)+,(R0)+
027466: 132330              		BITB	(R3)+,@(R0)+
027470: 132340              		BITB	(R3)+,-(R0)
027472: 132350              		BITB	(R3)+,@-(R0)
027474: 132360 132370       		BITB	(R3)+,132370(R0)
027500: 132400              		BITB	(R4)+,R0
027502: 132410              		BITB	(R4)+,(R0)
027504: 132420              		BITB	(R4)+,(R0)+
027506: 132430              		BITB	(R4)+,@(R0)+
027510: 132440              		BITB	(R4)+,-(R0)
027512: 132450              		BITB	(R4)+,@-(R0)
027514: 132460 132470       		BITB	(R4)+,132470(R0)
027520: 132500              		BITB	(R5)+,R0
027522: 132510              		BITB	(R5)+,(R0)
027524: 132520              		BITB	(R5)+,(R0)+
027526: 132530              		BITB	(R5)+,@(R0)+
027530: 132540              		BITB	(R5)+,-(R0)
027532: 132550              		BITB	(R5)+,@-(R0)
027534: 132560 132570       		BITB	(R5)+,132570(R0)
027540: 132600              		BITB	(SP)+,R0
027542: 132610              		BITB	(SP)+,(R0)
027544: 132620              		BITB	(SP)+,(R0)+
027546: 132630              		BITB	(SP)+,@(R0)+
027550: 132640              		BITB	(SP)+,-(R0)
027552: 132650              		BITB	(SP)+,@-(R0)
027554: 132660 132670       		BITB	(SP)+,132670(R0)
027560: 132700 132710       		BITB	#132710,R0
027564: 132720 132730       		BITB	#132730,(R0)+
027570: 132740 132750       		BITB	#132750,-(R0)
027574: 132760 132770 133000		BITB	#132770,133000(R0)
027602: 133010              		BITB	@(R0)+,(R0)
027604: 133020              		BITB	@(R0)+,(R0)+
027606: 133030              		BITB	@(R0)+,@(R0)+
027610: 133040              		BITB	@(R0)+,-(R0)
027612: 133050              		BITB	@(R0)+,@-(R0)
027614: 133060 133070       		BITB	@(R0)+,133070(R0)
027620: 133100              		BITB	@(R1)+,R0
027622: 133110              		BITB	@(R1)+,(R0)
027624: 133120              		BITB	@(R1)+,(R0)+
027626: 133130              		BITB	@(R1)+,@(R0)+
027630: 133140              		BITB	@(R1)+,-(R0)
027632: 133150              		BITB	@(R1)+,@-(R0)
027634: 133160 133170       		BITB	@(R1)+,133170(R0)
027640: 133200              		BITB	@(R2)+,R0
027642: 133210              		BITB	@(R2)+,(R0)
027644: 133220              		BITB	@(R2)+,(R0)+
027646: 133230              		BITB	@(R2)+,@(R0)+
027650: 133240              		BITB	@(R2)+,-(R0)
027652: 133250              		BITB	@(R2)+,@-(R0)
027654: 133260 133270       		BITB	@(R2)+,133270(R0)
027660: 133300              		BITB	@(R3)+,R0
027662: 133310              		BITB	@(R3)+,(R0)
027664: 133320              		BITB	@(R3)+,(R0)+
027666: 133330              		BITB	@(R3)+,@(R0)+
027670: 133340              		BITB	@(R3)+,-(R0)
027672: 133350              		BITB	@(R3)+,@-(R0)
027674: 133360 133370       		BITB	@(R3)+,133370(R0)
027700: 133400              		BITB	@(R4)+,R0
027702: 133410              		BITB	@(R4)+,(R0)
027704: 133420              		BITB	@(R4)+,(R0)+
027706: 133430              		BITB	@(R4)+,@(R0)+
027710: 133440              		BITB	@(R4)+,-(R0)
027712: 133450              		BITB	@(R4)+,@-(R0)
027714: 133460 133470       		BITB	@(R4)+,133470(R0)
027720: 133500              		BITB	@(R5)+,R0
027722: 133510              		BITB	@(R5)+,(R0)
027724: 133520              		BITB	@(R5)+,(R0)+
027726: 133530              		BITB	@(R5)+,@(R0)+
027730: 133540              		BITB	@(R5)+,-(R0)
027732: 133550              		BITB	@(R5)+,@-(R0)
027734: 133560 133570       		BITB	@(R5)+,133570(R0)
027740: 133600              		BITB	@(SP)+,R0
027742: 133610              		BITB	@(SP)+,(R0)
027744: 133620              		BITB	@(SP)+,(R0)+
027746: 133630              		BITB	@(SP)+,@(R0)+
027750: 133640              		BITB	@(SP)+,-(R0)
027752: 133650              		BITB	@(SP)+,@-(R0)
027754: 133660 133670       		BITB	@(SP)+,133670(R0)
027760: 133700 133710       		BITB	@#133710,R0
027764: 133720 133730       		BITB	@#133730,(R0)+
027770: 133740 133750       		BITB	@#133750,-(R0)
027774: 133760 133770 134000		BITB	@#133770,134000(R0)
030002: 134010              		BITB	-(R0),(R0)
030004: 134020              		BITB	-(R0),(R0)+
030006: 134030              		BITB	-(R0),@(R0)+
030010: 134040              		BITB	-(R0),-(R0)
030012: 134050              		BITB	-(R0),@-(R0)
030014: 134060 134070       		BITB	-(R0),134070(R0)
030020: 134100              		BITB	-(R1),R0
030022: 134110              		BITB	-(R1),(R0)
030024: 134120              		BITB	-(R1),(R0)+
030026: 134130              		BITB	-(R1),@(R0)+
030030: 134140              		BITB	-(R1),-(R0)
030032: 134150              		BITB	-(R1),@-(R0)
030034: 134160 134170       		BITB	-(R1),134170(R0)
030040: 134200              		BITB	-(R2),R0
030042: 134210              		BITB	-(R2),(R0)
030044: 134220              		BITB	-(R2),(R0)+
030046: 134230              		BITB	-(R2),@(R0)+
030050: 134240              		BITB	-(R2),-(R0)
030052: 134250              		BITB	-(R2),@-(R0)
030054: 134260 134270       		BITB	-(R2),134270(R0)
030060: 134300              		BITB	-(R3),R0
030062: 134310              		BITB	-(R3),(R0)
030064: 134320              		BITB	-(R3),(R0)+
030066: 134330              		BITB	-(R3),@(R0)+
030070: 134340              		BITB	-(R3),-(R0)
030072: 134350              		BITB	-(R3),@-(R0)
030074: 134360 134370       		BITB	-(R3),134370(R0)
030100: 134400              		BITB	-(R4),R0
030102: 134410              		BITB	-(R4),(R0)
030104: 134420              		BITB	-(R4),(R0)+
030106: 134430              		BITB	-(R4),@(R0)+
030110: 134440              		BITB	-(R4),-(R0)
030112: 134450              		BITB	-(R4),@-(R0)
030114: 134460 134470       		BITB	-(R4),134470(R0)
030120: 134500              		BITB	-(R5),R0
030122: 134510              		BITB	-(R5),(R0)
030124: 134520              		BITB	-(R5),(R0)+
030126: 134530              		BITB	-(R5),@(R0)+
030130: 134540              		BITB	-(R5),-(R0)
030132: 134550              		BITB	-(R5),@-(R0)
030134: 134560 134570       		BITB	-(R5),134570(R0)
030140: 134600              		BITB	-(SP),R0
030142: 134610              		BITB	-(SP),(R0)
030144: 134620              		BITB	-(SP),(R0)+
030146: 134630              		BITB	-(SP),@(R0)+
030150: 134640              		BITB	-(SP),-(R0)
030152: 134650              		BITB	-(SP),@-(R0)
030154: 134660 134670       		BITB	-(SP),134670(R0)
030160: 134700              		BITB	-(PC),R0
030162: 134710              		BITB	-(PC),(R0)
030164: 134720              		BITB	-(PC),(R0)+
030166: 134730              		BITB	-(PC),@(R0)+
030170: 134740              		BITB	-(PC),-(R0)
030172: 134750              		BITB	-(PC),@-(R0)
030174: 134760 134770       		BITB	-(PC),134770(R0)
030200: 135000              		BITB	@-(R0),R0
030202: 135010              		BITB	@-(R0),(R0)
030204: 135020              		BITB	@-(R0),(R0)+
030206: 135030              		BITB	@-(R0),@(R0)+
030210: 135040              		BITB	@-(R0),-(R0)
030212: 135050              		BITB	@-(R0),@-(R0)
030214: 135060 135070       		BITB	@-(R0),135070(R0)
030220: 135100              		BITB	@-(R1),R0
030222: 135110              		BITB	@-(R1),(R0)
030224: 135120              		BITB	@-(R1),(R0)+
030226: 135130              		BITB	@-(R1),@(R0)+
030230: 135140              		BITB	@-(R1),-(R0)
030232: 135150              		BITB	@-(R1),@-(R0)
030234: 135160 135170       		BITB	@-(R1),135170(R0)
030240: 135200              		BITB	@-(R2),R0
030242: 135210              		BITB	@-(R2),(R0)
030244: 135220              		BITB	@-(R2),(R0)+
030246: 135230              		BITB	@-(R2),@(R0)+
030250: 135240              		BITB	@-(R2),-(R0)
030252: 135250              		BITB	@-(R2),@-(R0)
030254: 135260 135270       		BITB	@-(R2),135270(R0)
030260: 135300              		BITB	@-(R3),R0
030262: 135310              		BITB	@-(R3),(R0)
030264: 135320              		BITB	@-(R3),(R0)+
030266: 135330              		BITB	@-(R3),@(R0)+
030270: 135340              		BITB	@-(R3),-(R0)
030272: 135350              		BITB	@-(R3),@-(R0)
030274: 135360 135370       		BITB	@-(R3),135370(R0)
030300: 135400              		BITB	@-(R4),R0
030302: 135410              		BITB	@-(R4),(R0)
030304: 135420              		BITB	@-(R4),(R0)+
030306: 135430              		BITB	@-(R4),@(R0)+
030310: 135440              		BITB	@-(R4),-(R0)
030312: 135450              		BITB	@-(R4),@-(R0)
030314: 135460 135470       		BITB	@-(R4),135470(R0)
030320: 135500              		BITB	@-(R5),R0
030322: 135510              		BITB	@-(R5),(R0)
030324: 135520              		BITB	@-(R5),(R0)+
030326: 135530              		BITB	@-(R5),@(R0)+
030330: 135540              		BITB	@-(R5),-(R0)
030332: 135550              		BITB	@-(R5),@-(R0)
030334: 135560 135570       		BITB	@-(R5),135570(R0)
030340: 135600              		BITB	@-(SP),R0
030342: 135610              		BITB	@-(SP),(R0)
030344: 135620              		BITB	@-(SP),(R0)+
030346: 135630              		BITB	@-(SP),@(R0)+
030350: 135640              		BITB	@-(SP),-(R0)
030352: 135650              		BITB	@-(SP),@-(R0)
030354: 135660 135670       		BITB	@-(SP),135670(R0)
030360: 135700              		BITB	@-(PC),R0
030362: 135710              		BITB	@-(PC),(R0)
030364: 135720              		BITB	@-(PC),(R0)+
030366: 135730              		BITB	@-(PC),@(R0)+
030370: 135740              		BITB	@-(PC),-(R0)
030372: 135750              		BITB	@-(PC),@-(R0)
030374: 135760 135770       		BITB	@-(PC),135770(R0)
030400: 136000 136010       		BITB	136010(R0),R0
030404: 136020 136030       		BITB	136030(R0),(R0)+
030410: 136040 136050       		BITB	136050(R0),-(R0)
030414: 136060 136070 136100		BITB	136070(R0),136100(R0)
030422: 136110 136120       		BITB	136120(R1),(R0)
030426: 136130 136140       		BITB	136140(R1),@(R0)+
030432: 136150 136160       		BITB	136160(R1),@-(R0)
030436: 136170 136200 136210		BITB	136200(R1),@136210(R0)
030444: 136220 136230       		BITB	136230(R2),(R0)+
030450: 136240 136250       		BITB	136250(R2),-(R0)
030454: 136260 136270 136300		BITB	136270(R2),136300(R0)
030462: 136310 136320       		BITB	136320(R3),(R0)
030466: 136330 136340       		BITB	136340(R3),@(R0)+
030472: 136350 136360       		BITB	136360(R3),@-(R0)
030476: 136370 136400 136410		BITB	136400(R3),@136410(R0)
030504: 136420 136430       		BITB	136430(R4),(R0)+
030510: 136440 136450       		BITB	136450(R4),-(R0)
030514: 136460 136470 136500		BITB	136470(R4),136500(R0)
030522: 136510 136520       		BITB	136520(R5),(R0)
030526: 136530 136540       		BITB	136540(R5),@(R0)+
030532: 136550 136560       		BITB	136560(R5),@-(R0)
030536: 136570 136600 136610		BITB	136600(R5),@136610(R0)
030544: 136620 136630       		BITB	136630(SP),(R0)+
030550: 136640 136650       		BITB	136650(SP),-(R0)
030554: 136660 136670 136700		BITB	136670(SP),136700(R0)
030562: 136710 136720       		BITB	167506,(R0)
030566: 136730 136740       		BITB	167532,@(R0)+
030572: 136750 136760       		BITB	167556,@-(R0)
030576: 136770 137000 137010		BITB	167602,@137010(R0)
030604: 137020 137030       		BITB	@137030(R0),(R0)+
030610: 137040 137050       		BITB	@137050(R0),-(R0)
030614: 137060 137070 137100		BITB	@137070(R0),137100(R0)
030622: 137110 137120       		BITB	@137120(R1),(R0)
030626: 137130 137140       		BITB	@137140(R1),@(R0)+
030632: 137150 137160       		BITB	@137160(R1),@-(R0)
030636: 137170 137200 137210		BITB	@137200(R1),@137210(R0)
030644: 137220 137230       		BITB	@137230(R2),(R0)+
030650: 137240 137250       		BITB	@137250(R2),-(R0)
030654: 137260 137270 137300		BITB	@137270(R2),137300(R0)
030662: 137310 137320       		BITB	@137320(R3),(R0)
030666: 137330 137340       		BITB	@137340(R3),@(R0)+
030672: 137350 137360       		BITB	@137360(R3),@-(R0)
030676: 137370 137400 137410		BITB	@137400(R3),@137410(R0)
030704: 137420 137430       		BITB	@137430(R4),(R0)+
030710: 137440 137450       		BITB	@137450(R4),-(R0)
030714: 137460 137470 137500		BITB	@137470(R4),137500(R0)
030722: 137510 137520       		BITB	@137520(R5),(R0)
030726: 137530 137540       		BITB	@137540(R5),@(R0)+
030732: 137550 137560       		BITB	@137560(R5),@-(R0)
030736: 137570 137600 137610		BITB	@137600(R5),@137610(R0)
030744: 137620 137630       		BITB	@137630(SP),(R0)+
030750: 137640 137650       		BITB	@137650(SP),-(R0)
030754: 137660 137670 137700		BITB	@137670(SP),137700(R0)
030762: 137710 137720       		BITB	@170706,(R0)
030766: 137730 137740       		BITB	@170732,@(R0)+
030772: 137750 137760       		BITB	@170756,@-(R0)
030776: 137770 140000 140010		BITB	@171002,@140010(R0)
031004: 140020              		BICB	R0,(R0)+
031006: 140030              		BICB	R0,@(R0)+
031010: 140040              		BICB	R0,-(R0)
031012: 140050              		BICB	R0,@-(R0)
031014: 140060 140070       		BICB	R0,140070(R0)
031020: 140100              		BICB	R1,R0
031022: 140110              		BICB	R1,(R0)
031024: 140120              		BICB	R1,(R0)+
031026: 140130              		BICB	R1,@(R0)+
031030: 140140              		BICB	R1,-(R0)
031032: 140150              		BICB	R1,@-(R0)
031034: 140160 140170       		BICB	R1,140170(R0)
031040: 140200              		BICB	R2,R0
031042: 140210              		BICB	R2,(R0)
031044: 140220              		BICB	R2,(R0)+
031046: 140230              		BICB	R2,@(R0)+
031050: 140240              		BICB	R2,-(R0)
031052: 140250              		BICB	R2,@-(R0)
031054: 140260 140270       		BICB	R2,140270(R0)
031060: 140300              		BICB	R3,R0
031062: 140310              		BICB	R3,(R0)
031064: 140320              		BICB	R3,(R0)+
031066: 140330              		BICB	R3,@(R0)+
031070: 140340              		BICB	R3,-(R0)
031072: 140350              		BICB	R3,@-(R0)
031074: 140360 140370       		BICB	R3,140370(R0)
031100: 140400              		BICB	R4,R0
031102: 140410              		BICB	R4,(R0)
031104: 140420              		BICB	R4,(R0)+
031106: 140430              		BICB	R4,@(R0)+
031110: 140440              		BICB	R4,-(R0)
031112: 140450              		BICB	R4,@-(R0)
031114: 140460 140470       		BICB	R4,140470(R0)
031120: 140500              		BICB	R5,R0
031122: 140510              		BICB	R5,(R0)
031124: 140520              		BICB	R5,(R0)+
031126: 140530              		BICB	R5,@(R0)+
031130: 140540              		BICB	R5,-(R0)
031132: 140550              		BICB	R5,@-(R0)
031134: 140560 140570       		BICB	R5,140570(R0)
031140: 140600              		BICB	SP,R0
031142: 140610              		BICB	SP,(R0)
031144: 140620              		BICB	SP,(R0)+
031146: 140630              		BICB	SP,@(R0)+
031150: 140640              		BICB	SP,-(R0)
031152: 140650              		BICB	SP,@-(R0)
031154: 140660 140670       		BICB	SP,140670(R0)
031160: 140700              		BICB	PC,R0
031162: 140710              		BICB	PC,(R0)
031164: 140720              		BICB	PC,(R0)+
031166: 140730              		BICB	PC,@(R0)+
031170: 140740              		BICB	PC,-(R0)
031172: 140750              		BICB	PC,@-(R0)
031174: 140760 140770       		BICB	PC,140770(R0)
031200: 141000              		BICB	(R0),R0
031202: 141010              		BICB	(R0),(R0)
031204: 141020              		BICB	(R0),(R0)+
031206: 141030              		BICB	(R0),@(R0)+
031210: 141040              		BICB	(R0),-(R0)
031212: 141050              		BICB	(R0),@-(R0)
031214: 141060 141070       		BICB	(R0),141070(R0)
031220: 141100              		BICB	(R1),R0
031222: 141110              		BICB	(R1),(R0)
031224: 141120              		BICB	(R1),(R0)+
031226: 141130              		BICB	(R1),@(R0)+
031230: 141140              		BICB	(R1),-(R0)
031232: 141150              		BICB	(R1),@-(R0)
031234: 141160 141170       		BICB	(R1),141170(R0)
031240: 141200              		BICB	(R2),R0
031242: 141210              		BICB	(R2),(R0)
031244: 141220              		BICB	(R2),(R0)+
031246: 141230              		BICB	(R2),@(R0)+
031250: 141240              		BICB	(R2),-(R0)
031252: 141250              		BICB	(R2),@-(R0)
031254: 141260 141270       		BICB	(R2),141270(R0)
031260: 141300              		BICB	(R3),R0
031262: 141310              		BICB	(R3),(R0)
031264: 141320              		BICB	(R3),(R0)+
031266: 141330              		BICB	(R3),@(R0)+
031270: 141340              		BICB	(R3),-(R0)
031272: 141350              		BICB	(R3),@-(R0)
031274: 141360 141370       		BICB	(R3),141370(R0)
031300: 141400              		BICB	(R4),R0
031302: 141410              		BICB	(R4),(R0)
031304: 141420              		BICB	(R4),(R0)+
031306: 141430              		BICB	(R4),@(R0)+
031310: 141440              		BICB	(R4),-(R0)
031312: 141450              		BICB	(R4),@-(R0)
031314: 141460 141470       		BICB	(R4),141470(R0)
031320: 141500              		BICB	(R5),R0
031322: 141510              		BICB	(R5),(R0)
031324: 141520              		BICB	(R5),(R0)+
031326: 141530              		BICB	(R5),@(R0)+
031330: 141540              		BICB	(R5),-(R0)
031332: 141550              		BICB	(R5),@-(R0)
031334: 141560 141570       		BICB	(R5),141570(R0)
031340: 141600              		BICB	(SP),R0
031342: 141610              		BICB	(SP),(R0)
031344: 141620              		BICB	(SP),(R0)+
031346: 141630              		BICB	(SP),@(R0)+
031350: 141640              		BICB	(SP),-(R0)
031352: 141650              		BICB	(SP),@-(R0)
031354: 141660 141670       		BICB	(SP),141670(R0)
031360: 141700              		BICB	(PC),R0
031362: 141710              		BICB	(PC),(R0)
031364: 141720              		BICB	(PC),(R0)+
031366: 141730              		BICB	(PC),@(R0)+
031370: 141740              		BICB	(PC),-(R0)
031372: 141750              		BICB	(PC),@-(R0)
031374: 141760 141770       		BICB	(PC),141770(R0)
031400: 142000              		BICB	(R0)+,R0
031402: 142010              		BICB	(R0)+,(R0)
031404: 142020              		BICB	(R0)+,(R0)+
031406: 142030              		BICB	(R0)+,@(R0)+
031410: 142040              		BICB	(R0)+,-(R0)
031412: 142050              		BICB	(R0)+,@-(R0)
031414: 142060 142070       		BICB	(R0)+,142070(R0)
031420: 142100              		BICB	(R1)+,R0
031422: 142110              		BICB	(R1)+,(R0)
031424: 142120              		BICB	(R1)+,(R0)+
031426: 142130              		BICB	(R1)+,@(R0)+
031430: 142140              		BICB	(R1)+,-(R0)
031432: 142150              		BICB	(R1)+,@-(R0)
031434: 142160 142170       		BICB	(R1)+,142170(R0)
031440: 142200              		BICB	(R2)+,R0
031442: 142210              		BICB	(R2)+,(R0)
031444: 142220              		BICB	(R2)+,(R0)+
031446: 142230              		BICB	(R2)+,@(R0)+
031450: 142240              		BICB	(R2)+,-(R0)
031452: 142250              		BICB	(R2)+,@-(R0)
031454: 142260 142270       		BICB	(R2)+,142270(R0)
031460: 142300              		BICB	(R3)+,R0
031462: 142310              		BICB	(R3)+,(R0)
031464: 142320              		BICB	(R3)+,(R0)+
031466: 142330              		BICB	(R3)+,@(R0)+
031470: 142340              		BICB	(R3)+,-(R0)
031472: 142350              		BICB	(R3)+,@-(R0)
031474: 142360 142370       		BICB	(R3)+,142370(R0)
031500: 142400              		BICB	(R4)+,R0
031502: 142410              		BICB	(R4)+,(R0)
031504: 142420              		BICB	(R4)+,(R0)+
031506: 142430              		BICB	(R4)+,@(R0)+
031510: 142440              		BICB	(R4)+,-(R0)
031512: 142450              		BICB	(R4)+,@-(R0)
031514: 142460 142470       		BICB	(R4)+,142470(R0)
031520: 142500              		BICB	(R5)+,R0
031522: 142510              		BICB	(R5)+,(R0)
031524: 142520              		BICB	(R5)+,(R0)+
031526: 142530              		BICB	(R5)+,@(R0)+
031530: 142540              		BICB	(R5)+,-(R0)
031532: 142550              		BICB	(R5)+,@-(R0)
031534: 142560 142570       		BICB	(R5)+,142570(R0)
031540: 142600              		BICB	(SP)+,R0
031542: 142610              		BICB	(SP)+,(R0)
031544: 142620              		BICB	(SP)+,(R0)+
031546: 142630              		BICB	(SP)+,@(R0)+
031550: 142640              		BICB	(SP)+,-(R0)
031552: 142650              		BICB	(SP)+,@-(R0)
031554: 142660 142670       		BICB	(SP)+,142670(R0)
031560: 142700 142710       		BICB	#142710,R0
031564: 142720 142730       		BICB	#142730,(R0)+
031570: 142740 142750       		BICB	#142750,-(R0)
031574: 142760 142770 143000		BICB	#142770,143000(R0)
031602: 143010              		BICB	@(R0)+,(R0)
031604: 143020              		BICB	@(R0)+,(R0)+
031606: 143030              		BICB	@(R0)+,@(R0)+
031610: 143040              		BICB	@(R0)+,-(R0)
031612: 143050              		BICB	@(R0)+,@-(R0)
031614: 143060 143070       		BICB	@(R0)+,143070(R0)
031620: 143100              		BICB	@(R1)+,R0
031622: 143110              		BICB	@(R1)+,(R0)
031624: 143120              		BICB	@(R1)+,(R0)+
031626: 143130              		BICB	@(R1)+,@(R0)+
031630: 143140              		BICB	@(R1)+,-(R0)
031632: 143150              		BICB	@(R1)+,@-(R0)
031634: 143160 143170       		BICB	@(R1)+,143170(R0)
031640: 143200              		BICB	@(R2)+,R0
031642: 143210              		BICB	@(R2)+,(R0)
031644: 143220              		BICB	@(R2)+,(R0)+
031646: 143230              		BICB	@(R2)+,@(R0)+
031650: 143240              		BICB	@(R2)+,-(R0)
031652: 143250              		BICB	@(R2)+,@-(R0)
031654: 143260 143270       		BICB	@(R2)+,143270(R0)
031660: 143300              		BICB	@(R3)+,R0
031662: 143310              		BICB	@(R3)+,(R0)
031664: 143320              		BICB	@(R3)+,(R0)+
031666: 143330              		BICB	@(R3)+,@(R0)+
031670: 143340              		BICB	@(R3)+,-(R0)
031672: 143350              		BICB	@(R3)+,@-(R0)
031674: 143360 143370       		BICB	@(R3)+,143370(R0)
031700: 143400              		BICB	@(R4)+,R0
031702: 143410              		BICB	@(R4)+,(R0)
031704: 143420              		BICB	@(R4)+,(R0)+
031706: 143430              		BICB	@(R4)+,@(R0)+
031710: 143440              		BICB	@(R4)+,-(R0)
031712: 143450              		BICB	@(R4)+,@-(R0)
031714: 143460 143470       		BICB	@(R4)+,143470(R0)
031720: 143500              		BICB	@(R5)+,R0
031722: 143510              		BICB	@(R5)+,(R0)
031724: 143520              		BICB	@(R5)+,(R0)+
031726: 143530              		BICB	@(R5)+,@(R0)+
031730: 143540              		BICB	@(R5)+,-(R0)
031732: 143550              		BICB	@(R5)+,@-(R0)
031734: 143560 143570       		BICB	@(R5)+,143570(R0)
031740: 143600              		BICB	@(SP)+,R0
031742: 143610              		BICB	@(SP)+,(R0)
031744: 143620              		BICB	@(SP)+,(R0)+
031746: 143630              		BICB	@(SP)+,@(R0)+
031750: 143640              		BICB	@(SP)+,-(R0)
031752: 143650              		BICB	@(SP)+,@-(R0)
031754: 143660 143670       		BICB	@(SP)+,143670(R0)
031760: 143700 143710       		BICB	@#143710,R0
031764: 143720 143730       		BICB	@#143730,(R0)+
031770: 143740 143750       		BICB	@#143750,-(R0)
031774: 143760 143770 144000		BICB	@#143770,144000(R0)
032002: 144010              		BICB	-(R0),(R0)
032004: 144020              		BICB	-(R0),(R0)+
032006: 144030              		BICB	-(R0),@(R0)+
032010: 144040              		BICB	-(R0),-(R0)
032012: 144050              		BICB	-(R0),@-(R0)
032014: 144060 144070       		BICB	-(R0),144070(R0)
032020: 144100              		BICB	-(R1),R0
032022: 144110              		BICB	-(R1),(R0)
032024: 144120              		BICB	-(R1),(R0)+
032026: 144130              		BICB	-(R1),@(R0)+
032030: 144140              		BICB	-(R1),-(R0)
032032: 144150              		BICB	-(R1),@-(R0)
032034: 144160 144170       		BICB	-(R1),144170(R0)
032040: 144200              		BICB	-(R2),R0
032042: 144210              		BICB	-(R2),(R0)
032044: 144220              		BICB	-(R2),(R0)+
032046: 144230              		BICB	-(R2),@(R0)+
032050: 144240              		BICB	-(R2),-(R0)
032052: 144250              		BICB	-(R2),@-(R0)
032054: 144260 144270       		BICB	-(R2),144270(R0)
032060: 144300              		BICB	-(R3),R0
032062: 144310              		BICB	-(R3),(R0)
032064: 144320              		BICB	-(R3),(R0)+
032066: 144330              		BICB	-(R3),@(R0)+
032070: 144340              		BICB	-(R3),-(R0)
032072: 144350              		BICB	-(R3),@-(R0)
032074: 144360 144370       		BICB	-(R3),144370(R0)
032100: 144400              		BICB	-(R4),R0
032102: 144410              		BICB	-(R4),(R0)
032104: 144420              		BICB	-(R4),(R0)+
032106: 144430              		BICB	-(R4),@(R0)+
032110: 144440              		BICB	-(R4),-(R0)
032112: 144450              		BICB	-(R4),@-(R0)
032114: 144460 144470       		BICB	-(R4),144470(R0)
032120: 144500              		BICB	-(R5),R0
032122: 144510              		BICB	-(R5),(R0)
032124: 144520              		BICB	-(R5),(R0)+
032126: 144530              		BICB	-(R5),@(R0)+
032130: 144540              		BICB	-(R5),-(R0)
032132: 144550              		BICB	-(R5),@-(R0)
032134: 144560 144570       		BICB	-(R5),144570(R0)
032140: 144600              		BICB	-(SP),R0
032142: 144610              		BICB	-(SP),(R0)
032144: 144620              		BICB	-(SP),(R0)+
032146: 144630              		BICB	-(SP),@(R0)+
032150: 144640              		BICB	-(SP),-(R0)
032152: 144650              		BICB	-(SP),@-(R0)
032154: 144660 144670       		BICB	-(SP),144670(R0)
032160: 144700              		BICB	-(PC),R0
032162: 144710              		BICB	-(PC),(R0)
032164: 144720              		BICB	-(PC),(R0)+
032166: 144730              		BICB	-(PC),@(R0)+
032170: 144740              		BICB	-(PC),-(R0)
032172: 144750              		BICB	-(PC),@-(R0)
032174: 144760 144770       		BICB	-(PC),144770(R0)
032200: 145000              		BICB	@-(R0),R0
032202: 145010              		BICB	@-(R0),(R0)
032204: 145020              		BICB	@-(R0),(R0)+
032206: 145030              		BICB	@-(R0),@(R0)+
032210: 145040              		BICB	@-(R0),-(R0)
032212: 145050              		BICB	@-(R0),@-(R0)
032214: 145060 145070       		BICB	@-(R0),145070(R0)
032220: 145100              		BICB	@-(R1),R0
032222: 145110              		BICB	@-(R1),(R0)
032224: 145120              		BICB	@-(R1),(R0)+
032226: 145130              		BICB	@-(R1),@(R0)+
032230: 145140              		BICB	@-(R1),-(R0)
032232: 145150              		BICB	@-(R1),@-(R0)
032234: 145160 145170       		BICB	@-(R1),145170(R0)
032240: 145200              		BICB	@-(R2),R0
032242: 145210              		BICB	@-(R2),(R0)
032244: 145220              		BICB	@-(R2),(R0)+
032246: 145230              		BICB	@-(R2),@(R0)+
032250: 145240              		BICB	@-(R2),-(R0)
032252: 145250              		BICB	@-(R2),@-(R0)
032254: 145260 145270       		BICB	@-(R2),145270(R0)
032260: 145300              		BICB	@-(R3),R0
032262: 145310              		BICB	@-(R3),(R0)
032264: 145320              		BICB	@-(R3),(R0)+
032266: 145330              		BICB	@-(R3),@(R0)+
032270: 145340              		BICB	@-(R3),-(R0)
032272: 145350              		BICB	@-(R3),@-(R0)
032274: 145360 145370       		BICB	@-(R3),145370(R0)
032300: 145400              		BICB	@-(R4),R0
032302: 145410              		BICB	@-(R4),(R0)
032304: 145420              		BICB	@-(R4),(R0)+
032306: 145430              		BICB	@-(R4),@(R0)+
032310: 145440              		BICB	@-(R4),-(R0)
032312: 145450              		BICB	@-(R4),@-(R0)
032314: 145460 145470       		BICB	@-(R4),145470(R0)
032320: 145500              		BICB	@-(R5),R0
032322: 145510              		BICB	@-(R5),(R0)
032324: 145520              		BICB	@-(R5),(R0)+
032326: 145530              		BICB	@-(R5),@(R0)+
032330: 145540              		BICB	@-(R5),-(R0)
032332: 145550              		BICB	@-(R5),@-(R0)
032334: 145560 145570       		BICB	@-(R5),145570(R0)
032340: 145600              		BICB	@-(SP),R0
032342: 145610              		BICB	@-(SP),(R0)
032344: 145620              		BICB	@-(SP),(R0)+
032346: 145630              		BICB	@-(SP),@(R0)+
032350: 145640              		BICB	@-(SP),-(R0)
032352: 145650              		BICB	@-(SP),@-(R0)
032354: 145660 145670       		BICB	@-(SP),145670(R0)
032360: 145700              		BICB	@-(PC),R0
032362: 145710              		BICB	@-(PC),(R0)
032364: 145720              		BICB	@-(PC),(R0)+
032366: 145730              		BICB	@-(PC),@(R0)+
032370: 145740              		BICB	@-(PC),-(R0)
032372: 145750              		BICB	@-(PC),@-(R0)
032374: 145760 145770       		BICB	@-(PC),145770(R0)
032400: 146000 146010       		BICB	146010(R0),R0
032404: 146020 146030       		BICB	146030(R0),(R0)+
032410: 146040 146050       		BICB	146050(R0),-(R0)
032414: 146060 146070 146100		BICB	146070(R0),146100(R0)
032422: 146110 146120       		BICB	146120(R1),(R0)
032426: 146130 146140       		BICB	146140(R1),@(R0)+
032432: 146150 146160       		BICB	146160(R1),@-(R0)
032436: 146170 146200 146210		BICB	146200(R1),@146210(R0)
032444: 146220 146230       		BICB	146230(R2),(R0)+
032450: 146240 146250       		BICB	146250(R2),-(R0)
032454: 146260 146270 146300		BICB	146270(R2),146300(R0)
032462: 146310 146320       		BICB	146320(R3),(R0)
032466: 146330 146340       		BICB	146340(R3),@(R0)+
032472: 146350 146360       		BICB	146360(R3),@-(R0)
032476: 146370 146400 146410		BICB	146400(R3),@146410(R0)
032504: 146420 146430       		BICB	146430(R4),(R0)+
032510: 146440 146450       		BICB	146450(R4),-(R0)
032514: 146460 146470 146500		BICB	146470(R4),146500(R0)
032522: 146510 146520       		BICB	146520(R5),(R0)
032526: 146530 146540       		BICB	146540(R5),@(R0)+
032532: 146550 146560       		BICB	146560(R5),@-(R0)
032536: 146570 146600 146610		BICB	146600(R5),@146610(R0)
032544: 146620 146630       		BICB	146630(SP),(R0)+
032550: 146640 146650       		BICB	146650(SP),-(R0)
032554: 146660 146670 146700		BICB	146670(SP),146700(R0)
032562: 146710 146720       		BICB	L544,(R0)
032566: 146730 146740       		BICB	L37,@(R0)+
032572: 146750 146760       		BICB	L89,@-(R0)
032576: 146770 147000 147010		BICB	L147,@147010(R0)
032604: 147020 147030       		BICB	@147030(R0),(R0)+
032610: 147040 147050       		BICB	@147050(R0),-(R0)
032614: 147060 147070 147100		BICB	@147070(R0),147100(R0)
032622: 147110 147120       		BICB	@147120(R1),(R0)
032626: 147130 147140       		BICB	@147140(R1),@(R0)+
032632: 147150 147160       		BICB	@147160(R1),@-(R0)
032636: 147170 147200 147210		BICB	@147200(R1),@147210(R0)
032644: 147220 147230       		BICB	@147230(R2),(R0)+
032650: 147240 147250       		BICB	@147250(R2),-(R0)
032654: 147260 147270 147300		BICB	@147270(R2),147300(R0)
032662: 147310 147320       		BICB	@147320(R3),(R0)
032666: 147330 147340       		BICB	@147340(R3),@(R0)+
032672: 147350 147360       		BICB	@147360(R3),@-(R0)
032676: 147370 147400 147410		BICB	@147400(R3),@147410(R0)
032704: 147420 147430       		BICB	@147430(R4),(R0)+
032710: 147440 147450       		BICB	@147450(R4),-(R0)
032714: 147460 147470 147500		BICB	@147470(R4),147500(R0)
032722: 147510 147520       		BICB	@147520(R5),(R0)
032726: 147530 147540       		BICB	@147540(R5),@(R0)+
032732: 147550 147560       		BICB	@147560(R5),@-(R0)
032736: 147570 147600 147610		BICB	@147600(R5),@147610(R0)
032744: 147620 147630       		BICB	@147630(SP),(R0)+
032750: 147640 147650       		BICB	@147650(SP),-(R0)
032754: 147660 147670 147700		BICB	@147670(SP),147700(R0)
032762: 147710 147720       		BICB	@L545,(R0)
032766: 147730 147740       		BICB	@L546,@(R0)+
032772: 147750 147760       		BICB	@L547,@-(R0)
032776: 147770 150000 150010		BICB	@L548,@150010(R0)
033004: 150020              		BISB	R0,(R0)+
033006: 150030              		BISB	R0,@(R0)+
033010: 150040              		BISB	R0,-(R0)
033012: 150050              		BISB	R0,@-(R0)
033014: 150060 150070       		BISB	R0,150070(R0)
033020: 150100              		BISB	R1,R0
033022: 150110              		BISB	R1,(R0)
033024: 150120              		BISB	R1,(R0)+
033026: 150130              		BISB	R1,@(R0)+
033030: 150140              		BISB	R1,-(R0)
033032: 150150              		BISB	R1,@-(R0)
033034: 150160 150170       		BISB	R1,150170(R0)
033040: 150200              		BISB	R2,R0
033042: 150210              		BISB	R2,(R0)
033044: 150220              		BISB	R2,(R0)+
033046: 150230              		BISB	R2,@(R0)+
033050: 150240              		BISB	R2,-(R0)
033052: 150250              		BISB	R2,@-(R0)
033054: 150260 150270       		BISB	R2,150270(R0)
033060: 150300              		BISB	R3,R0
033062: 150310              		BISB	R3,(R0)
033064: 150320              		BISB	R3,(R0)+
033066: 150330              		BISB	R3,@(R0)+
033070: 150340              		BISB	R3,-(R0)
033072: 150350              		BISB	R3,@-(R0)
033074: 150360 150370       		BISB	R3,150370(R0)
033100: 150400              		BISB	R4,R0
033102: 150410              		BISB	R4,(R0)
033104: 150420              		BISB	R4,(R0)+
033106: 150430              		BISB	R4,@(R0)+
033110: 150440              		BISB	R4,-(R0)
033112: 150450              		BISB	R4,@-(R0)
033114: 150460 150470       		BISB	R4,150470(R0)
033120: 150500              		BISB	R5,R0
033122: 150510              		BISB	R5,(R0)
033124: 150520              		BISB	R5,(R0)+
033126: 150530              		BISB	R5,@(R0)+
033130: 150540              		BISB	R5,-(R0)
033132: 150550              		BISB	R5,@-(R0)
033134: 150560 150570       		BISB	R5,150570(R0)
033140: 150600              		BISB	SP,R0
033142: 150610              		BISB	SP,(R0)
033144: 150620              		BISB	SP,(R0)+
033146: 150630              		BISB	SP,@(R0)+
033150: 150640              		BISB	SP,-(R0)
033152: 150650              		BISB	SP,@-(R0)
033154: 150660 150670       		BISB	SP,150670(R0)
033160: 150700              		BISB	PC,R0
033162: 150710              		BISB	PC,(R0)
033164: 150720              		BISB	PC,(R0)+
033166: 150730              		BISB	PC,@(R0)+
033170: 150740              		BISB	PC,-(R0)
033172: 150750              		BISB	PC,@-(R0)
033174: 150760 150770       		BISB	PC,150770(R0)
033200: 151000              		BISB	(R0),R0
033202: 151010              		BISB	(R0),(R0)
033204: 151020              		BISB	(R0),(R0)+
033206: 151030              		BISB	(R0),@(R0)+
033210: 151040              		BISB	(R0),-(R0)
033212: 151050              		BISB	(R0),@-(R0)
033214: 151060 151070       		BISB	(R0),151070(R0)
033220: 151100              		BISB	(R1),R0
033222: 151110              		BISB	(R1),(R0)
033224: 151120              		BISB	(R1),(R0)+
033226: 151130              		BISB	(R1),@(R0)+
033230: 151140              		BISB	(R1),-(R0)
033232: 151150              		BISB	(R1),@-(R0)
033234: 151160 151170       		BISB	(R1),151170(R0)
033240: 151200              		BISB	(R2),R0
033242: 151210              		BISB	(R2),(R0)
033244: 151220              		BISB	(R2),(R0)+
033246: 151230              		BISB	(R2),@(R0)+
033250: 151240              		BISB	(R2),-(R0)
033252: 151250              		BISB	(R2),@-(R0)
033254: 151260 151270       		BISB	(R2),151270(R0)
033260: 151300              		BISB	(R3),R0
033262: 151310              		BISB	(R3),(R0)
033264: 151320              		BISB	(R3),(R0)+
033266: 151330              		BISB	(R3),@(R0)+
033270: 151340              		BISB	(R3),-(R0)
033272: 151350              		BISB	(R3),@-(R0)
033274: 151360 151370       		BISB	(R3),151370(R0)
033300: 151400              		BISB	(R4),R0
033302: 151410              		BISB	(R4),(R0)
033304: 151420              		BISB	(R4),(R0)+
033306: 151430              		BISB	(R4),@(R0)+
033310: 151440              		BISB	(R4),-(R0)
033312: 151450              		BISB	(R4),@-(R0)
033314: 151460 151470       		BISB	(R4),151470(R0)
033320: 151500              		BISB	(R5),R0
033322: 151510              		BISB	(R5),(R0)
033324: 151520              		BISB	(R5),(R0)+
033326: 151530              		BISB	(R5),@(R0)+
033330: 151540              		BISB	(R5),-(R0)
033332: 151550              		BISB	(R5),@-(R0)
033334: 151560 151570       		BISB	(R5),151570(R0)
033340: 151600              		BISB	(SP),R0
033342: 151610              		BISB	(SP),(R0)
033344: 151620              		BISB	(SP),(R0)+
033346: 151630              		BISB	(SP),@(R0)+
033350: 151640              		BISB	(SP),-(R0)
033352: 151650              		BISB	(SP),@-(R0)
033354: 151660 151670       		BISB	(SP),151670(R0)
033360: 151700              		BISB	(PC),R0
033362: 151710              		BISB	(PC),(R0)
033364: 151720              		BISB	(PC),(R0)+
033366: 151730              		BISB	(PC),@(R0)+
033370: 151740              		BISB	(PC),-(R0)
033372: 151750              		BISB	(PC),@-(R0)
033374: 151760 151770       		BISB	(PC),151770(R0)
033400: 152000              		BISB	(R0)+,R0
033402: 152010              		BISB	(R0)+,(R0)
033404: 152020              		BISB	(R0)+,(R0)+
033406: 152030              		BISB	(R0)+,@(R0)+
033410: 152040              		BISB	(R0)+,-(R0)
033412: 152050              		BISB	(R0)+,@-(R0)
033414: 152060 152070       		BISB	(R0)+,152070(R0)
033420: 152100              		BISB	(R1)+,R0
033422: 152110              		BISB	(R1)+,(R0)
033424: 152120              		BISB	(R1)+,(R0)+
033426: 152130              		BISB	(R1)+,@(R0)+
033430: 152140              		BISB	(R1)+,-(R0)
033432: 152150              		BISB	(R1)+,@-(R0)
033434: 152160 152170       		BISB	(R1)+,152170(R0)
033440: 152200              		BISB	(R2)+,R0
033442: 152210              		BISB	(R2)+,(R0)
033444: 152220              		BISB	(R2)+,(R0)+
033446: 152230              		BISB	(R2)+,@(R0)+
033450: 152240              		BISB	(R2)+,-(R0)
033452: 152250              		BISB	(R2)+,@-(R0)
033454: 152260 152270       		BISB	(R2)+,152270(R0)
033460: 152300              		BISB	(R3)+,R0
033462: 152310              		BISB	(R3)+,(R0)
033464: 152320              		BISB	(R3)+,(R0)+
033466: 152330              		BISB	(R3)+,@(R0)+
033470: 152340              		BISB	(R3)+,-(R0)
033472: 152350              		BISB	(R3)+,@-(R0)
033474: 152360 152370       		BISB	(R3)+,152370(R0)
033500: 152400              		BISB	(R4)+,R0
033502: 152410              		BISB	(R4)+,(R0)
033504: 152420              		BISB	(R4)+,(R0)+
033506: 152430              		BISB	(R4)+,@(R0)+
033510: 152440              		BISB	(R4)+,-(R0)
033512: 152450              		BISB	(R4)+,@-(R0)
033514: 152460 152470       		BISB	(R4)+,152470(R0)
033520: 152500              		BISB	(R5)+,R0
033522: 152510              		BISB	(R5)+,(R0)
033524: 152520              		BISB	(R5)+,(R0)+
033526: 152530              		BISB	(R5)+,@(R0)+
033530: 152540              		BISB	(R5)+,-(R0)
033532: 152550              		BISB	(R5)+,@-(R0)
033534: 152560 152570       		BISB	(R5)+,152570(R0)
033540: 152600              		BISB	(SP)+,R0
033542: 152610              		BISB	(SP)+,(R0)
033544: 152620              		BISB	(SP)+,(R0)+
033546: 152630              		BISB	(SP)+,@(R0)+
033550: 152640              		BISB	(SP)+,-(R0)
033552: 152650              		BISB	(SP)+,@-(R0)
033554: 152660 152670       		BISB	(SP)+,152670(R0)
033560: 152700 152710       		BISB	#152710,R0
033564: 152720 152730       		BISB	#152730,(R0)+
033570: 152740 152750       		BISB	#152750,-(R0)
033574: 152760 152770 153000		BISB	#152770,153000(R0)
033602: 153010              		BISB	@(R0)+,(R0)
033604: 153020              		BISB	@(R0)+,(R0)+
033606: 153030              		BISB	@(R0)+,@(R0)+
033610: 153040              		BISB	@(R0)+,-(R0)
033612: 153050              		BISB	@(R0)+,@-(R0)
033614: 153060 153070       		BISB	@(R0)+,153070(R0)
033620: 153100              		BISB	@(R1)+,R0
033622: 153110              		BISB	@(R1)+,(R0)
033624: 153120              		BISB	@(R1)+,(R0)+
033626: 153130              		BISB	@(R1)+,@(R0)+
033630: 153140              		BISB	@(R1)+,-(R0)
033632: 153150              		BISB	@(R1)+,@-(R0)
033634: 153160 153170       		BISB	@(R1)+,153170(R0)
033640: 153200              		BISB	@(R2)+,R0
033642: 153210              		BISB	@(R2)+,(R0)
033644: 153220              		BISB	@(R2)+,(R0)+
033646: 153230              		BISB	@(R2)+,@(R0)+
033650: 153240              		BISB	@(R2)+,-(R0)
033652: 153250              		BISB	@(R2)+,@-(R0)
033654: 153260 153270       		BISB	@(R2)+,153270(R0)
033660: 153300              		BISB	@(R3)+,R0
033662: 153310              		BISB	@(R3)+,(R0)
033664: 153320              		BISB	@(R3)+,(R0)+
033666: 153330              		BISB	@(R3)+,@(R0)+
033670: 153340              		BISB	@(R3)+,-(R0)
033672: 153350              		BISB	@(R3)+,@-(R0)
033674: 153360 153370       		BISB	@(R3)+,153370(R0)
033700: 153400              		BISB	@(R4)+,R0
033702: 153410              		BISB	@(R4)+,(R0)
033704: 153420              		BISB	@(R4)+,(R0)+
033706: 153430              		BISB	@(R4)+,@(R0)+
033710: 153440              	L234:	BISB	@(R4)+,-(R0)
033712: 153450              		BISB	@(R4)+,@-(R0)
033714: 153460 153470       		BISB	@(R4)+,153470(R0)
033720: 153500              		BISB	@(R5)+,R0
033722: 153510              		BISB	@(R5)+,(R0)
033724: 153520              		BISB	@(R5)+,(R0)+
033726: 153530              		BISB	@(R5)+,@(R0)+
033730: 153540              	L235:	BISB	@(R5)+,-(R0)
033732: 153550              		BISB	@(R5)+,@-(R0)
033734: 153560 153570       		BISB	@(R5)+,153570(R0)
033740: 153600              		BISB	@(SP)+,R0
033742: 153610              		BISB	@(SP)+,(R0)
033744: 153620              		BISB	@(SP)+,(R0)+
033746: 153630              		BISB	@(SP)+,@(R0)+
033750: 153640              	L236:	BISB	@(SP)+,-(R0)
033752: 153650              		BISB	@(SP)+,@-(R0)
033754: 153660 153670       		BISB	@(SP)+,153670(R0)
033760: 153700 153710       		BISB	@#153710,R0
033764: 153720 153730       		BISB	@#153730,(R0)+
033770: 153740 153750       	L237:	BISB	@#153750,-(R0)
033774: 153760 153770 154000		BISB	@#153770,154000(R0)
034002: 154010              		BISB	-(R0),(R0)
034004: 154020              		BISB	-(R0),(R0)+
034006: 154030              		BISB	-(R0),@(R0)+
034010: 154040              		BISB	-(R0),-(R0)
034012: 154050              		BISB	-(R0),@-(R0)
034014: 154060 154070       		BISB	-(R0),154070(R0)
034020: 154100              		BISB	-(R1),R0
034022: 154110              		BISB	-(R1),(R0)
034024: 154120              		BISB	-(R1),(R0)+
034026: 154130              		BISB	-(R1),@(R0)+
034030: 154140              		BISB	-(R1),-(R0)
034032: 154150              		BISB	-(R1),@-(R0)
034034: 154160 154170       		BISB	-(R1),154170(R0)
034040: 154200              		BISB	-(R2),R0
034042: 154210              		BISB	-(R2),(R0)
034044: 154220              		BISB	-(R2),(R0)+
034046: 154230              		BISB	-(R2),@(R0)+
034050: 154240              		BISB	-(R2),-(R0)
034052: 154250              		BISB	-(R2),@-(R0)
034054: 154260 154270       		BISB	-(R2),154270(R0)
034060: 154300              		BISB	-(R3),R0
034062: 154310              		BISB	-(R3),(R0)
034064: 154320              		BISB	-(R3),(R0)+
034066: 154330              		BISB	-(R3),@(R0)+
034070: 154340              		BISB	-(R3),-(R0)
034072: 154350              		BISB	-(R3),@-(R0)
034074: 154360 154370       		BISB	-(R3),154370(R0)
034100: 154400              		BISB	-(R4),R0
034102: 154410              		BISB	-(R4),(R0)
034104: 154420              		BISB	-(R4),(R0)+
034106: 154430              		BISB	-(R4),@(R0)+
034110: 154440              		BISB	-(R4),-(R0)
034112: 154450              		BISB	-(R4),@-(R0)
034114: 154460 154470       		BISB	-(R4),154470(R0)
034120: 154500              		BISB	-(R5),R0
034122: 154510              		BISB	-(R5),(R0)
034124: 154520              		BISB	-(R5),(R0)+
034126: 154530              		BISB	-(R5),@(R0)+
034130: 154540              		BISB	-(R5),-(R0)
034132: 154550              		BISB	-(R5),@-(R0)
034134: 154560 154570       		BISB	-(R5),154570(R0)
034140: 154600              		BISB	-(SP),R0
034142: 154610              		BISB	-(SP),(R0)
034144: 154620              		BISB	-(SP),(R0)+
034146: 154630              		BISB	-(SP),@(R0)+
034150: 154640              		BISB	-(SP),-(R0)
034152: 154650              		BISB	-(SP),@-(R0)
034154: 154660 154670       		BISB	-(SP),154670(R0)
034160: 154700              		BISB	-(PC),R0
034162: 154710              		BISB	-(PC),(R0)
034164: 154720              		BISB	-(PC),(R0)+
034166: 154730              		BISB	-(PC),@(R0)+
034170: 154740              		BISB	-(PC),-(R0)
034172: 154750              		BISB	-(PC),@-(R0)
034174: 154760 154770       		BISB	-(PC),154770(R0)
034200: 155000              		BISB	@-(R0),R0
034202: 155010              		BISB	@-(R0),(R0)
034204: 155020              		BISB	@-(R0),(R0)+
034206: 155030              		BISB	@-(R0),@(R0)+
034210: 155040              		BISB	@-(R0),-(R0)
034212: 155050              		BISB	@-(R0),@-(R0)
034214: 155060 155070       		BISB	@-(R0),155070(R0)
034220: 155100              		BISB	@-(R1),R0
034222: 155110              		BISB	@-(R1),(R0)
034224: 155120              		BISB	@-(R1),(R0)+
034226: 155130              		BISB	@-(R1),@(R0)+
034230: 155140              		BISB	@-(R1),-(R0)
034232: 155150              		BISB	@-(R1),@-(R0)
034234: 155160 155170       		BISB	@-(R1),155170(R0)
034240: 155200              		BISB	@-(R2),R0
034242: 155210              		BISB	@-(R2),(R0)
034244: 155220              		BISB	@-(R2),(R0)+
034246: 155230              		BISB	@-(R2),@(R0)+
034250: 155240              		BISB	@-(R2),-(R0)
034252: 155250              		BISB	@-(R2),@-(R0)
034254: 155260 155270       		BISB	@-(R2),155270(R0)
034260: 155300              		BISB	@-(R3),R0
034262: 155310              		BISB	@-(R3),(R0)
034264: 155320              		BISB	@-(R3),(R0)+
034266: 155330              		BISB	@-(R3),@(R0)+
034270: 155340              		BISB	@-(R3),-(R0)
034272: 155350              		BISB	@-(R3),@-(R0)
034274: 155360 155370       		BISB	@-(R3),155370(R0)
034300: 155400              		BISB	@-(R4),R0
034302: 155410              		BISB	@-(R4),(R0)
034304: 155420              		BISB	@-(R4),(R0)+
034306: 155430              		BISB	@-(R4),@(R0)+
034310: 155440              		BISB	@-(R4),-(R0)
034312: 155450              		BISB	@-(R4),@-(R0)
034314: 155460 155470       		BISB	@-(R4),155470(R0)
034320: 155500              		BISB	@-(R5),R0
034322: 155510              		BISB	@-(R5),(R0)
034324: 155520              		BISB	@-(R5),(R0)+
034326: 155530              		BISB	@-(R5),@(R0)+
034330: 155540              		BISB	@-(R5),-(R0)
034332: 155550              		BISB	@-(R5),@-(R0)
034334: 155560 155570       		BISB	@-(R5),155570(R0)
034340: 155600              		BISB	@-(SP),R0
034342: 155610              		BISB	@-(SP),(R0)
034344: 155620              		BISB	@-(SP),(R0)+
034346: 155630              		BISB	@-(SP),@(R0)+
034350: 155640              		BISB	@-(SP),-(R0)
034352: 155650              		BISB	@-(SP),@-(R0)
034354: 155660 155670       		BISB	@-(SP),155670(R0)
034360: 155700              		BISB	@-(PC),R0
034362: 155710              		BISB	@-(PC),(R0)
034364: 155720              		BISB	@-(PC),(R0)+
034366: 155730              		BISB	@-(PC),@(R0)+
034370: 155740              		BISB	@-(PC),-(R0)
034372: 155750              		BISB	@-(PC),@-(R0)
034374: 155760 155770       		BISB	@-(PC),155770(R0)
034400: 156000 156010       		BISB	156010(R0),R0
034404: 156020 156030       		BISB	156030(R0),(R0)+
034410: 156040 156050       		BISB	156050(R0),-(R0)
034414: 156060 156070 156100		BISB	156070(R0),156100(R0)
034422: 156110 156120       		BISB	156120(R1),(R0)
034426: 156130 156140       		BISB	156140(R1),@(R0)+
034432: 156150 156160       		BISB	156160(R1),@-(R0)
034436: 156170 156200 156210		BISB	156200(R1),@156210(R0)
034444: 156220 156230       		BISB	156230(R2),(R0)+
034450: 156240 156250       		BISB	156250(R2),-(R0)
034454: 156260 156270 156300		BISB	156270(R2),156300(R0)
034462: 156310 156320       		BISB	156320(R3),(R0)
034466: 156330 156340       		BISB	156340(R3),@(R0)+
034472: 156350 156360       		BISB	156360(R3),@-(R0)
034476: 156370 156400 156410		BISB	156400(R3),@156410(R0)
034504: 156420 156430       		BISB	156430(R4),(R0)+
034510: 156440 156450       		BISB	156450(R4),-(R0)
034514: 156460 156470 156500		BISB	156470(R4),156500(R0)
034522: 156510 156520       		BISB	156520(R5),(R0)
034526: 156530 156540       		BISB	156540(R5),@(R0)+
034532: 156550 156560       		BISB	156560(R5),@-(R0)
034536: 156570 156600 156610		BISB	156600(R5),@156610(R0)
034544: 156620 156630       		BISB	156630(SP),(R0)+
034550: 156640 156650       		BISB	156650(SP),-(R0)
034554: 156660 156670 156700		BISB	156670(SP),156700(R0)
034562: 156710 156720       		BISB	L549,(R0)
034566: 156730 156740       		BISB	L550,@(R0)+
034572: 156750 156760       		BISB	L551+2,@-(R0)
034576: 156770 157000 157010		BISB	L552,@157010(R0)
034604: 157020 157030       		BISB	@157030(R0),(R0)+
034610: 157040 157050       		BISB	@157050(R0),-(R0)
034614: 157060 157070 157100		BISB	@157070(R0),157100(R0)
034622: 157110 157120       		BISB	@157120(R1),(R0)
034626: 157130 157140       		BISB	@157140(R1),@(R0)+
034632: 157150 157160       		BISB	@157160(R1),@-(R0)
034636: 157170 157200 157210		BISB	@157200(R1),@157210(R0)
034644: 157220 157230       		BISB	@157230(R2),(R0)+
034650: 157240 157250       		BISB	@157250(R2),-(R0)
034654: 157260 157270 157300		BISB	@157270(R2),157300(R0)
034662: 157310 157320       		BISB	@157320(R3),(R0)
034666: 157330 157340       		BISB	@157340(R3),@(R0)+
034672: 157350 157360       		BISB	@157360(R3),@-(R0)
034676: 157370 157400 157410		BISB	@157400(R3),@157410(R0)
034704: 157420 157430       		BISB	@157430(R4),(R0)+
034710: 157440 157450       		BISB	@157450(R4),-(R0)
034714: 157460 157470 157500		BISB	@157470(R4),157500(R0)
034722: 157510 157520       		BISB	@157520(R5),(R0)
034726: 157530 157540       		BISB	@157540(R5),@(R0)+
034732: 157550 157560       		BISB	@157560(R5),@-(R0)
034736: 157570 157600 157610		BISB	@157600(R5),@157610(R0)
034744: 157620 157630       		BISB	@157630(SP),(R0)+
034750: 157640 157650       		BISB	@157650(SP),-(R0)
034754: 157660 157670 157700		BISB	@157670(SP),157700(R0)
034762: 157710 157720       		BISB	@L553+2,(R0)
034766: 157730 157740       		BISB	@L554,@(R0)+
034772: 157750 157760       		BISB	@L555+2,@-(R0)
034776: 157770 160000 160010		BISB	@L556+4,@160010(R0)
035004: 160020              		SUB	R0,(R0)+
035006: 160030              		SUB	R0,@(R0)+
035010: 160040              		SUB	R0,-(R0)
035012: 160050              		SUB	R0,@-(R0)
035014: 160060 160070       		SUB	R0,160070(R0)
035020: 160100              		SUB	R1,R0
035022: 160110              		SUB	R1,(R0)
035024: 160120              		SUB	R1,(R0)+
035026: 160130              		SUB	R1,@(R0)+
035030: 160140              		SUB	R1,-(R0)
035032: 160150              		SUB	R1,@-(R0)
035034: 160160 160170       		SUB	R1,160170(R0)
035040: 160200              		SUB	R2,R0
035042: 160210              		SUB	R2,(R0)
035044: 160220              		SUB	R2,(R0)+
035046: 160230              		SUB	R2,@(R0)+
035050: 160240              		SUB	R2,-(R0)
035052: 160250              		SUB	R2,@-(R0)
035054: 160260 160270       		SUB	R2,160270(R0)
035060: 160300              		SUB	R3,R0
035062: 160310              		SUB	R3,(R0)
035064: 160320              		SUB	R3,(R0)+
035066: 160330              		SUB	R3,@(R0)+
035070: 160340              		SUB	R3,-(R0)
035072: 160350              		SUB	R3,@-(R0)
035074: 160360 160370       		SUB	R3,160370(R0)
035100: 160400              		SUB	R4,R0
035102: 160410              		SUB	R4,(R0)
035104: 160420              		SUB	R4,(R0)+
035106: 160430              		SUB	R4,@(R0)+
035110: 160440              		SUB	R4,-(R0)
035112: 160450              		SUB	R4,@-(R0)
035114: 160460 160470       		SUB	R4,160470(R0)
035120: 160500              		SUB	R5,R0
035122: 160510              		SUB	R5,(R0)
035124: 160520              		SUB	R5,(R0)+
035126: 160530              		SUB	R5,@(R0)+
035130: 160540              		SUB	R5,-(R0)
035132: 160550              		SUB	R5,@-(R0)
035134: 160560 160570       		SUB	R5,160570(R0)
035140: 160600              		SUB	SP,R0
035142: 160610              		SUB	SP,(R0)
035144: 160620              		SUB	SP,(R0)+
035146: 160630              		SUB	SP,@(R0)+
035150: 160640              		SUB	SP,-(R0)
035152: 160650              		SUB	SP,@-(R0)
035154: 160660 160670       		SUB	SP,160670(R0)
035160: 160700              		SUB	PC,R0
035162: 160710              		SUB	PC,(R0)
035164: 160720              		SUB	PC,(R0)+
035166: 160730              		SUB	PC,@(R0)+
035170: 160740              		SUB	PC,-(R0)
035172: 160750              		SUB	PC,@-(R0)
035174: 160760 160770       		SUB	PC,160770(R0)
035200: 161000              		SUB	(R0),R0
035202: 161010              		SUB	(R0),(R0)
035204: 161020              		SUB	(R0),(R0)+
035206: 161030              		SUB	(R0),@(R0)+
035210: 161040              		SUB	(R0),-(R0)
035212: 161050              		SUB	(R0),@-(R0)
035214: 161060 161070       		SUB	(R0),161070(R0)
035220: 161100              		SUB	(R1),R0
035222: 161110              		SUB	(R1),(R0)
035224: 161120              		SUB	(R1),(R0)+
035226: 161130              		SUB	(R1),@(R0)+
035230: 161140              		SUB	(R1),-(R0)
035232: 161150              		SUB	(R1),@-(R0)
035234: 161160 161170       		SUB	(R1),161170(R0)
035240: 161200              		SUB	(R2),R0
035242: 161210              		SUB	(R2),(R0)
035244: 161220              		SUB	(R2),(R0)+
035246: 161230              		SUB	(R2),@(R0)+
035250: 161240              		SUB	(R2),-(R0)
035252: 161250              		SUB	(R2),@-(R0)
035254: 161260 161270       		SUB	(R2),161270(R0)
035260: 161300              		SUB	(R3),R0
035262: 161310              		SUB	(R3),(R0)
035264: 161320              		SUB	(R3),(R0)+
035266: 161330              		SUB	(R3),@(R0)+
035270: 161340              		SUB	(R3),-(R0)
035272: 161350              		SUB	(R3),@-(R0)
035274: 161360 161370       		SUB	(R3),161370(R0)
035300: 161400              		SUB	(R4),R0
035302: 161410              		SUB	(R4),(R0)
035304: 161420              		SUB	(R4),(R0)+
035306: 161430              		SUB	(R4),@(R0)+
035310: 161440              		SUB	(R4),-(R0)
035312: 161450              		SUB	(R4),@-(R0)
035314: 161460 161470       		SUB	(R4),161470(R0)
035320: 161500              		SUB	(R5),R0
035322: 161510              		SUB	(R5),(R0)
035324: 161520              		SUB	(R5),(R0)+
035326: 161530              		SUB	(R5),@(R0)+
035330: 161540              		SUB	(R5),-(R0)
035332: 161550              		SUB	(R5),@-(R0)
035334: 161560 161570       		SUB	(R5),161570(R0)
035340: 161600              		SUB	(SP),R0
035342: 161610              		SUB	(SP),(R0)
035344: 161620              		SUB	(SP),(R0)+
035346: 161630              		SUB	(SP),@(R0)+
035350: 161640              		SUB	(SP),-(R0)
035352: 161650              		SUB	(SP),@-(R0)
035354: 161660 161670       		SUB	(SP),161670(R0)
035360: 161700              		SUB	(PC),R0
035362: 161710              		SUB	(PC),(R0)
035364: 161720              		SUB	(PC),(R0)+
035366: 161730              		SUB	(PC),@(R0)+
035370: 161740              		SUB	(PC),-(R0)
035372: 161750              		SUB	(PC),@-(R0)
035374: 161760 161770       		SUB	(PC),161770(R0)
035400: 162000              		SUB	(R0)+,R0
035402: 162010              		SUB	(R0)+,(R0)
035404: 162020              		SUB	(R0)+,(R0)+
035406: 162030              		SUB	(R0)+,@(R0)+
035410: 162040              		SUB	(R0)+,-(R0)
035412: 162050              		SUB	(R0)+,@-(R0)
035414: 162060 162070       		SUB	(R0)+,162070(R0)
035420: 162100              		SUB	(R1)+,R0
035422: 162110              		SUB	(R1)+,(R0)
035424: 162120              		SUB	(R1)+,(R0)+
035426: 162130              		SUB	(R1)+,@(R0)+
035430: 162140              		SUB	(R1)+,-(R0)
035432: 162150              		SUB	(R1)+,@-(R0)
035434: 162160 162170       		SUB	(R1)+,162170(R0)
035440: 162200              		SUB	(R2)+,R0
035442: 162210              		SUB	(R2)+,(R0)
035444: 162220              		SUB	(R2)+,(R0)+
035446: 162230              		SUB	(R2)+,@(R0)+
035450: 162240              		SUB	(R2)+,-(R0)
035452: 162250              		SUB	(R2)+,@-(R0)
035454: 162260 162270       		SUB	(R2)+,162270(R0)
035460: 162300              		SUB	(R3)+,R0
035462: 162310              		SUB	(R3)+,(R0)
035464: 162320              		SUB	(R3)+,(R0)+
035466: 162330              		SUB	(R3)+,@(R0)+
035470: 162340              		SUB	(R3)+,-(R0)
035472: 162350              		SUB	(R3)+,@-(R0)
035474: 162360 162370       		SUB	(R3)+,162370(R0)
035500: 162400              		SUB	(R4)+,R0
035502: 162410              		SUB	(R4)+,(R0)
035504: 162420              		SUB	(R4)+,(R0)+
035506: 162430              	L226:	SUB	(R4)+,@(R0)+
035510: 162440              		SUB	(R4)+,-(R0)
035512: 162450              		SUB	(R4)+,@-(R0)
035514: 162460 162470       		SUB	(R4)+,162470(R0)
035520: 162500              		SUB	(R5)+,R0
035522: 162510              		SUB	(R5)+,(R0)
035524: 162520              		SUB	(R5)+,(R0)+
035526: 162530              		SUB	(R5)+,@(R0)+
035530: 162540              		SUB	(R5)+,-(R0)
035532: 162550              	L227:	SUB	(R5)+,@-(R0)
035534: 162560 162570       		SUB	(R5)+,162570(R0)
035540: 162600              		SUB	(SP)+,R0
035542: 162610              		SUB	(SP)+,(R0)
035544: 162620              		SUB	(SP)+,(R0)+
035546: 162630              		SUB	(SP)+,@(R0)+
035550: 162640              		SUB	(SP)+,-(R0)
035552: 162650              		SUB	(SP)+,@-(R0)
035554: 162660 162670       	L228:	SUB	(SP)+,162670(R0)
035560: 162700 162710       		SUB	#162710,R0
035564: 162720 162730       		SUB	#162730,(R0)+
035570: 162740 162750       		SUB	#162750,-(R0)
035574: 162760 162770 163000		SUB	#162770,163000(R0)
035602: 163010              	L229:	SUB	@(R0)+,(R0)
035604: 163020              		SUB	@(R0)+,(R0)+
035606: 163030              		SUB	@(R0)+,@(R0)+
035610: 163040              		SUB	@(R0)+,-(R0)
035612: 163050              		SUB	@(R0)+,@-(R0)
035614: 163060 163070       		SUB	@(R0)+,163070(R0)
035620: 163100              		SUB	@(R1)+,R0
035622: 163110              		SUB	@(R1)+,(R0)
035624: 163120              		SUB	@(R1)+,(R0)+
035626: 163130              		SUB	@(R1)+,@(R0)+
035630: 163140              		SUB	@(R1)+,-(R0)
035632: 163150              		SUB	@(R1)+,@-(R0)
035634: 163160 163170       		SUB	@(R1)+,163170(R0)
035640: 163200              		SUB	@(R2)+,R0
035642: 163210              		SUB	@(R2)+,(R0)
035644: 163220              		SUB	@(R2)+,(R0)+
035646: 163230              		SUB	@(R2)+,@(R0)+
035650: 163240              		SUB	@(R2)+,-(R0)
035652: 163250              		SUB	@(R2)+,@-(R0)
035654: 163260 163270       		SUB	@(R2)+,163270(R0)
035660: 163300              		SUB	@(R3)+,R0
035662: 163310              		SUB	@(R3)+,(R0)
035664: 163320              		SUB	@(R3)+,(R0)+
035666: 163330              		SUB	@(R3)+,@(R0)+
035670: 163340              		SUB	@(R3)+,-(R0)
035672: 163350              		SUB	@(R3)+,@-(R0)
035674: 163360 163370       		SUB	@(R3)+,163370(R0)
035700: 163400              		SUB	@(R4)+,R0
035702: 163410              		SUB	@(R4)+,(R0)
035704: 163420              		SUB	@(R4)+,(R0)+
035706: 163430              		SUB	@(R4)+,@(R0)+
035710: 163440              		SUB	@(R4)+,-(R0)
035712: 163450              		SUB	@(R4)+,@-(R0)
035714: 163460 163470       		SUB	@(R4)+,163470(R0)
035720: 163500              		SUB	@(R5)+,R0
035722: 163510              		SUB	@(R5)+,(R0)
035724: 163520              		SUB	@(R5)+,(R0)+
035726: 163530              		SUB	@(R5)+,@(R0)+
035730: 163540              		SUB	@(R5)+,-(R0)
035732: 163550              		SUB	@(R5)+,@-(R0)
035734: 163560 163570       		SUB	@(R5)+,163570(R0)
035740: 163600              		SUB	@(SP)+,R0
035742: 163610              		SUB	@(SP)+,(R0)
035744: 163620              		SUB	@(SP)+,(R0)+
035746: 163630              		SUB	@(SP)+,@(R0)+
035750: 163640              		SUB	@(SP)+,-(R0)
035752: 163650              		SUB	@(SP)+,@-(R0)
035754: 163660 163670       		SUB	@(SP)+,163670(R0)
035760: 163700 163710       		SUB	@#163710,R0
035764: 163720 163730       		SUB	@#163730,(R0)+
035770: 163740 163750       		SUB	@#163750,-(R0)
035774: 163760 163770 164000		SUB	@#163770,164000(R0)
036002: 164010              		SUB	-(R0),(R0)
036004: 164020              		SUB	-(R0),(R0)+
036006: 164030              		SUB	-(R0),@(R0)+
036010: 164040              		SUB	-(R0),-(R0)
036012: 164050              		SUB	-(R0),@-(R0)
036014: 164060 164070       		SUB	-(R0),164070(R0)
036020: 164100              		SUB	-(R1),R0
036022: 164110              		SUB	-(R1),(R0)
036024: 164120              		SUB	-(R1),(R0)+
036026: 164130              		SUB	-(R1),@(R0)+
036030: 164140              		SUB	-(R1),-(R0)
036032: 164150              		SUB	-(R1),@-(R0)
036034: 164160 164170       		SUB	-(R1),164170(R0)
036040: 164200              		SUB	-(R2),R0
036042: 164210              		SUB	-(R2),(R0)
036044: 164220              		SUB	-(R2),(R0)+
036046: 164230              		SUB	-(R2),@(R0)+
036050: 164240              		SUB	-(R2),-(R0)
036052: 164250              		SUB	-(R2),@-(R0)
036054: 164260 164270       		SUB	-(R2),164270(R0)
036060: 164300              		SUB	-(R3),R0
036062: 164310              		SUB	-(R3),(R0)
036064: 164320              		SUB	-(R3),(R0)+
036066: 164330              		SUB	-(R3),@(R0)+
036070: 164340              		SUB	-(R3),-(R0)
036072: 164350              		SUB	-(R3),@-(R0)
036074: 164360 164370       		SUB	-(R3),164370(R0)
036100: 164400              		SUB	-(R4),R0
036102: 164410              		SUB	-(R4),(R0)
036104: 164420              		SUB	-(R4),(R0)+
036106: 164430              		SUB	-(R4),@(R0)+
036110: 164440              		SUB	-(R4),-(R0)
036112: 164450              		SUB	-(R4),@-(R0)
036114: 164460 164470       		SUB	-(R4),164470(R0)
036120: 164500              		SUB	-(R5),R0
036122: 164510              		SUB	-(R5),(R0)
036124: 164520              		SUB	-(R5),(R0)+
036126: 164530              		SUB	-(R5),@(R0)+
036130: 164540              		SUB	-(R5),-(R0)
036132: 164550              		SUB	-(R5),@-(R0)
036134: 164560 164570       		SUB	-(R5),164570(R0)
036140: 164600              		SUB	-(SP),R0
036142: 164610              		SUB	-(SP),(R0)
036144: 164620              		SUB	-(SP),(R0)+
036146: 164630              		SUB	-(SP),@(R0)+
036150: 164640              		SUB	-(SP),-(R0)
036152: 164650              		SUB	-(SP),@-(R0)
036154: 164660 164670       		SUB	-(SP),164670(R0)
036160: 164700              		SUB	-(PC),R0
036162: 164710              		SUB	-(PC),(R0)
036164: 164720              		SUB	-(PC),(R0)+
036166: 164730              		SUB	-(PC),@(R0)+
036170: 164740              		SUB	-(PC),-(R0)
036172: 164750              		SUB	-(PC),@-(R0)
036174: 164760 164770       		SUB	-(PC),164770(R0)
036200: 165000              		SUB	@-(R0),R0
036202: 165010              		SUB	@-(R0),(R0)
036204: 165020              		SUB	@-(R0),(R0)+
036206: 165030              		SUB	@-(R0),@(R0)+
036210: 165040              		SUB	@-(R0),-(R0)
036212: 165050              		SUB	@-(R0),@-(R0)
036214: 165060 165070       		SUB	@-(R0),165070(R0)
036220: 165100              		SUB	@-(R1),R0
036222: 165110              		SUB	@-(R1),(R0)
036224: 165120              		SUB	@-(R1),(R0)+
036226: 165130              		SUB	@-(R1),@(R0)+
036230: 165140              		SUB	@-(R1),-(R0)
036232: 165150              		SUB	@-(R1),@-(R0)
036234: 165160 165170       		SUB	@-(R1),165170(R0)
036240: 165200              		SUB	@-(R2),R0
036242: 165210              		SUB	@-(R2),(R0)
036244: 165220              		SUB	@-(R2),(R0)+
036246: 165230              		SUB	@-(R2),@(R0)+
036250: 165240              		SUB	@-(R2),-(R0)
036252: 165250              		SUB	@-(R2),@-(R0)
036254: 165260 165270       		SUB	@-(R2),165270(R0)
036260: 165300              		SUB	@-(R3),R0
036262: 165310              		SUB	@-(R3),(R0)
036264: 165320              		SUB	@-(R3),(R0)+
036266: 165330              		SUB	@-(R3),@(R0)+
036270: 165340              		SUB	@-(R3),-(R0)
036272: 165350              		SUB	@-(R3),@-(R0)
036274: 165360 165370       		SUB	@-(R3),165370(R0)
036300: 165400              		SUB	@-(R4),R0
036302: 165410              		SUB	@-(R4),(R0)
036304: 165420              		SUB	@-(R4),(R0)+
036306: 165430              		SUB	@-(R4),@(R0)+
036310: 165440              		SUB	@-(R4),-(R0)
036312: 165450              		SUB	@-(R4),@-(R0)
036314: 165460 165470       		SUB	@-(R4),165470(R0)
036320: 165500              		SUB	@-(R5),R0
036322: 165510              		SUB	@-(R5),(R0)
036324: 165520              		SUB	@-(R5),(R0)+
036326: 165530              		SUB	@-(R5),@(R0)+
036330: 165540              		SUB	@-(R5),-(R0)
036332: 165550              		SUB	@-(R5),@-(R0)
036334: 165560 165570       		SUB	@-(R5),165570(R0)
036340: 165600              		SUB	@-(SP),R0
036342: 165610              		SUB	@-(SP),(R0)
036344: 165620              		SUB	@-(SP),(R0)+
036346: 165630              		SUB	@-(SP),@(R0)+
036350: 165640              		SUB	@-(SP),-(R0)
036352: 165650              		SUB	@-(SP),@-(R0)
036354: 165660 165670       		SUB	@-(SP),165670(R0)
036360: 165700              		SUB	@-(PC),R0
036362: 165710              		SUB	@-(PC),(R0)
036364: 165720              		SUB	@-(PC),(R0)+
036366: 165730              		SUB	@-(PC),@(R0)+
036370: 165740              		SUB	@-(PC),-(R0)
036372: 165750              		SUB	@-(PC),@-(R0)
036374: 165760 165770       		SUB	@-(PC),165770(R0)
036400: 166000 166010       		SUB	166010(R0),R0
036404: 166020 166030       		SUB	166030(R0),(R0)+
036410: 166040 166050       		SUB	166050(R0),-(R0)
036414: 166060 166070 166100		SUB	166070(R0),166100(R0)
036422: 166110 166120       		SUB	166120(R1),(R0)
036426: 166130 166140       		SUB	166140(R1),@(R0)+
036432: 166150 166160       		SUB	166160(R1),@-(R0)
036436: 166170 166200 166210		SUB	166200(R1),@166210(R0)
036444: 166220 166230       		SUB	166230(R2),(R0)+
036450: 166240 166250       		SUB	166250(R2),-(R0)
036454: 166260 166270 166300		SUB	166270(R2),166300(R0)
036462: 166310 166320       		SUB	166320(R3),(R0)
036466: 166330 166340       		SUB	166340(R3),@(R0)+
036472: 166350 166360       		SUB	166360(R3),@-(R0)
036476: 166370 166400 166410		SUB	166400(R3),@166410(R0)
036504: 166420 166430       		SUB	166430(R4),(R0)+
036510: 166440 166450       		SUB	166450(R4),-(R0)
036514: 166460 166470 166500		SUB	166470(R4),166500(R0)
036522: 166510 166520       		SUB	166520(R5),(R0)
036526: 166530 166540       		SUB	166540(R5),@(R0)+
036532: 166550 166560       		SUB	166560(R5),@-(R0)
036536: 166570 166600 166610		SUB	166600(R5),@166610(R0)
036544: 166620 166630       		SUB	166630(SP),(R0)+
036550: 166640 166650       		SUB	166650(SP),-(R0)
036554: 166660 166670 166700		SUB	166670(SP),166700(R0)
036562: 166710 166720       		SUB	L557,(R0)
036566: 166730 166740       		SUB	L558,@(R0)+
036572: 166750 166760       		SUB	L559+2,@-(R0)
036576: 166770 167000 167010		SUB	L560,@167010(R0)
036604: 167020 167030       		SUB	@167030(R0),(R0)+
036610: 167040 167050       		SUB	@167050(R0),-(R0)
036614: 167060 167070 167100		SUB	@167070(R0),167100(R0)
036622: 167110 167120       		SUB	@167120(R1),(R0)
036626: 167130 167140       		SUB	@167140(R1),@(R0)+
036632: 167150 167160       		SUB	@167160(R1),@-(R0)
036636: 167170 167200 167210		SUB	@167200(R1),@167210(R0)
036644: 167220 167230       		SUB	@167230(R2),(R0)+
036650: 167240 167250       		SUB	@167250(R2),-(R0)
036654: 167260 167270 167300		SUB	@167270(R2),167300(R0)
036662: 167310 167320       		SUB	@167320(R3),(R0)
036666: 167330 167340       		SUB	@167340(R3),@(R0)+
036672: 167350 167360       		SUB	@167360(R3),@-(R0)
036676: 167370 167400 167410		SUB	@167400(R3),@167410(R0)
036704: 167420 167430       	L230:	SUB	@167430(R4),(R0)+
036710: 167440 167450       		SUB	@167450(R4),-(R0)
036714: 167460 167470 167500		SUB	@167470(R4),167500(R0)
036722: 167510 167520       		SUB	@167520(R5),(R0)
036726: 167530 167540       		SUB	@167540(R5),@(R0)+
036732: 167550 167560       	L231:	SUB	@167560(R5),@-(R0)
036736: 167570 167600 167610		SUB	@167600(R5),@167610(R0)
036744: 167620 167630       		SUB	@167630(SP),(R0)+
036750: 167640 167650       		SUB	@167650(SP),-(R0)
036754: 167660 167670 167700	L232:	SUB	@167670(SP),167700(R0)
036762: 167710 167720       		SUB	@L561+2,(R0)
036766: 167730 167740       		SUB	@L562,@(R0)+
036772: 167750 167760       		SUB	@L563+2,@-(R0)
036776: 167770 170000 170010	L233:	SUB	@L564+4,@170010(R0)
037004: 170020              		.#170020
037006: 170030              		.#170030
037010: 170040              		.#170040
037012: 170050              		.#170050
037014: 170060              		.#170060
037016: 170070              		.#170070
037020: 170100              		.#170100
037022: 170110              		.#170110
037024: 170120              		.#170120
037026: 170130              		.#170130
037030: 170140              		.#170140
037032: 170150              		.#170150
037034: 170160              		.#170160
037036: 170170              		.#170170
037040: 170200              		.#170200
037042: 170210              		.#170210
037044: 170220              		.#170220
037046: 170230              		.#170230
037050: 170240              		.#170240
037052: 170250              		.#170250
037054: 170260              		.#170260
037056: 170270              		.#170270
037060: 170300              		.#170300
037062: 170310              		.#170310
037064: 170320              		.#170320
037066: 170330              		.#170330
037070: 170340              		.#170340
037072: 170350              		.#170350
037074: 170360              		.#170360
037076: 170370              		.#170370
037100: 170400              		.#170400
037102: 170410              		.#170410
037104: 170420              		.#170420
037106: 170430              		.#170430
037110: 170440              		.#170440
037112: 170450              		.#170450
037114: 170460              		.#170460
037116: 170470              		.#170470
037120: 170500              		.#170500
037122: 170510              		.#170510
037124: 170520              		.#170520
037126: 170530              		.#170530
037130: 170540              		.#170540
037132: 170550              		.#170550
037134: 170560              		.#170560
037136: 170570              		.#170570
037140: 170600              		.#170600
037142: 170610              		.#170610
037144: 170620              		.#170620
037146: 170630              		.#170630
037150: 170640              		.#170640
037152: 170650              		.#170650
037154: 170660              		.#170660
037156: 170670              		.#170670
037160: 170700              		.#170700
037162: 170710              		.#170710
037164: 170720              		.#170720
037166: 170730              		.#170730
037170: 170740              		.#170740
037172: 170750              		.#170750
037174: 170760              		.#170760
037176: 170770              		.#170770
037200: 171000              		.#171000
037202: 171010              		.#171010
037204: 171020              		.#171020
037206: 171030              		.#171030
037210: 171040              		.#171040
037212: 171050              		.#171050
037214: 171060              		.#171060
037216: 171070              		.#171070
037220: 171100              		.#171100
037222: 171110              		.#171110
037224: 171120              		.#171120
037226: 171130              		.#171130
037230: 171140              		.#171140
037232: 171150              		.#171150
037234: 171160              		.#171160
037236: 171170              		.#171170
037240: 171200              		.#171200
037242: 171210              		.#171210
037244: 171220              		.#171220
037246: 171230              		.#171230
037250: 171240              		.#171240
037252: 171250              		.#171250
037254: 171260              		.#171260
037256: 171270              		.#171270
037260: 171300              		.#171300
037262: 171310              		.#171310
037264: 171320              		.#171320
037266: 171330              		.#171330
037270: 171340              		.#171340
037272: 171350              		.#171350
037274: 171360              		.#171360
037276: 171370              		.#171370
037300: 171400              		.#171400
037302: 171410              		.#171410
037304: 171420              		.#171420
037306: 171430              		.#171430
037310: 171440              		.#171440
037312: 171450              		.#171450
037314: 171460              		.#171460
037316: 171470              		.#171470
037320: 171500              		.#171500
037322: 171510              		.#171510
037324: 171520              		.#171520
037326: 171530              		.#171530
037330: 171540              		.#171540
037332: 171550              		.#171550
037334: 171560              		.#171560
037336: 171570              		.#171570
037340: 171600              		.#171600
037342: 171610              		.#171610
037344: 171620              		.#171620
037346: 171630              		.#171630
037350: 171640              		.#171640
037352: 171650              		.#171650
037354: 171660              		.#171660
037356: 171670              		.#171670
037360: 171700              		.#171700
037362: 171710              		.#171710
037364: 171720              		.#171720
037366: 171730              		.#171730
037370: 171740              		.#171740
037372: 171750              		.#171750
037374: 171760              		.#171760
037376: 171770              		.#171770
037400: 172000              		.#172000
037402: 172010              		.#172010
037404: 172020              		.#172020
037406: 172030              		.#172030
037410: 172040              		.#172040
037412: 172050              		.#172050
037414: 172060              		.#172060
037416: 172070              		.#172070
037420: 172100              		.#172100
037422: 172110              		.#172110
037424: 172120              		.#172120
037426: 172130              		.#172130
037430: 172140              		.#172140
037432: 172150              		.#172150
037434: 172160              		.#172160
037436: 172170              		.#172170
037440: 172200              		.#172200
037442: 172210              		.#172210
037444: 172220              		.#172220
037446: 172230              		.#172230
037450: 172240              		.#172240
037452: 172250              		.#172250
037454: 172260              		.#172260
037456: 172270              		.#172270
037460: 172300              		.#172300
037462: 172310              		.#172310
037464: 172320              		.#172320
037466: 172330              		.#172330
037470: 172340              		.#172340
037472: 172350              		.#172350
037474: 172360              		.#172360
037476: 172370              		.#172370
037500: 172400              		.#172400
037502: 172410              		.#172410
037504: 172420              		.#172420
037506: 172430              		.#172430
037510: 172440              		.#172440
037512: 172450              		.#172450
037514: 172460              		.#172460
037516: 172470              		.#172470
037520: 172500              		.#172500
037522: 172510              		.#172510
037524: 172520              		.#172520
037526: 172530              		.#172530
037530: 172540              		.#172540
037532: 172550              		.#172550
037534: 172560              		.#172560
037536: 172570              		.#172570
037540: 172600              		.#172600
037542: 172610              		.#172610
037544: 172620              		.#172620
037546: 172630              		.#172630
037550: 172640              		.#172640
037552: 172650              		.#172650
037554: 172660              		.#172660
037556: 172670              		.#172670
037560: 172700              		.#172700
037562: 172710              		.#172710
037564: 172720              		.#172720
037566: 172730              		.#172730
037570: 172740              		.#172740
037572: 172750              		.#172750
037574: 172760              		.#172760
037576: 172770              		.#172770
037600: 173000              		.#173000
037602: 173010              		.#173010
037604: 173020              		.#173020
037606: 173030              		.#173030
037610: 173040              		.#173040
037612: 173050              		.#173050
037614: 173060              		.#173060
037616: 173070              		.#173070
037620: 173100              		.#173100
037622: 173110              		.#173110
037624: 173120              		.#173120
037626: 173130              		.#173130
037630: 173140              		.#173140
037632: 173150              		.#173150
037634: 173160              		.#173160
037636: 173170              		.#173170
037640: 173200              		.#173200
037642: 173210              		.#173210
037644: 173220              		.#173220
037646: 173230              		.#173230
037650: 173240              		.#173240
037652: 173250              		.#173250
037654: 173260              		.#173260
037656: 173270              		.#173270
037660: 173300              		.#173300
037662: 173310              		.#173310
037664: 173320              		.#173320
037666: 173330              		.#173330
037670: 173340              		.#173340
037672: 173350              		.#173350
037674: 173360              		.#173360
037676: 173370              		.#173370
037700: 173400              		.#173400
037702: 173410              		.#173410
037704: 173420              		.#173420
037706: 173430              		.#173430
037710: 173440              		.#173440
037712: 173450              		.#173450
037714: 173460              		.#173460
037716: 173470              		.#173470
037720: 173500              		.#173500
037722: 173510              		.#173510
037724: 173520              		.#173520
037726: 173530              		.#173530
037730: 173540              		.#173540
037732: 173550              		.#173550
037734: 173560              		.#173560
037736: 173570              		.#173570
037740: 173600              		.#173600
037742: 173610              		.#173610
037744: 173620              		.#173620
037746: 173630              		.#173630
037750: 173640              		.#173640
037752: 173650              		.#173650
037754: 173660              		.#173660
037756: 173670              		.#173670
037760: 173700              		.#173700
037762: 173710              		.#173710
037764: 173720              		.#173720
037766: 173730              		.#173730
037770: 173740              		.#173740
037772: 173750              		.#173750
037774: 173760              		.#173760
037776: 173770              		.#173770
